

Microchip MPLAB XC8 Assembler V2.32 build 20210201212658 
                                                                                               Wed Dec 08 09:43:24 2021

Microchip MPLAB XC8 C Compiler v2.32 (Free license) build 20210201212658 Og1 
     1                           	processor	16F1459
     2                           	pagewidth 120
     3                           	opt	flic
     4                           	psect	idataBANK0,global,class=CODE,delta=2,noexec
     5                           	psect	cinit,global,class=CODE,merge=1,delta=2
     6                           	psect	bssBANK0,global,class=BANK0,space=1,delta=1,noexec
     7                           	psect	dataBANK0,global,class=BANK0,space=1,delta=1,noexec
     8                           	psect	bssBANK1,global,class=BANK1,space=1,delta=1,noexec
     9                           	psect	bssBANK2,global,class=BANK2,space=1,delta=1,noexec
    10                           	psect	clrtext,global,class=CODE,delta=2
    11                           	psect	cstackCOMMON,global,class=COMMON,space=1,delta=1,noexec
    12                           	psect	cstackBANK0,global,class=BANK0,space=1,delta=1,noexec
    13                           	psect	maintext,global,class=CODE,merge=1,split=1,delta=2
    14                           	psect	text1,local,class=CODE,merge=1,delta=2
    15                           	psect	text2,local,class=CODE,merge=1,delta=2
    16                           	psect	text3,local,class=CODE,merge=1,delta=2
    17                           	psect	text4,local,class=CODE,merge=1,delta=2,group=1
    18                           	psect	text5,local,class=CODE,merge=1,delta=2,group=1
    19                           	psect	text6,local,class=CODE,merge=1,delta=2,group=1
    20                           	psect	text7,local,class=CODE,merge=1,delta=2
    21                           	psect	text8,local,class=CODE,merge=1,delta=2
    22                           	dabs	1,0x7E,2
    23  0000                     
    24                           ; Version 2.20
    25                           ; Generated 12/02/2020 GMT
    26                           ; 
    27                           ; Copyright © 2020, Microchip Technology Inc. and its subsidiaries ("Microchip")
    28                           ; All rights reserved.
    29                           ; 
    30                           ; This software is developed by Microchip Technology Inc. and its subsidiaries ("Microch
      +                          ip").
    31                           ; 
    32                           ; Redistribution and use in source and binary forms, with or without modification, are
    33                           ; permitted provided that the following conditions are met:
    34                           ; 
    35                           ;     1. Redistributions of source code must retain the above copyright notice, this lis
      +                          t of
    36                           ;        conditions and the following disclaimer.
    37                           ; 
    38                           ;     2. Redistributions in binary form must reproduce the above copyright notice, this 
      +                          list
    39                           ;        of conditions and the following disclaimer in the documentation and/or other
    40                           ;        materials provided with the distribution.
    41                           ; 
    42                           ;     3. Microchip's name may not be used to endorse or promote products derived from th
      +                          is
    43                           ;        software without specific prior written permission.
    44                           ; 
    45                           ; THIS SOFTWARE IS PROVIDED BY MICROCHIP "AS IS" AND ANY EXPRESS OR IMPLIED WARRANTIES,
    46                           ; INCLUDING, BUT NOT LIMITED TO, THE IMPLIED WARRANTIES OF MERCHANTABILITY AND FITNESS F
      +                          OR
    47                           ; PURPOSE ARE DISCLAIMED.  IN NO EVENT SHALL MICROCHIP BE LIABLE FOR ANY DIRECT, INDIREC
      +                          T,
    48                           ; INCIDENTAL, SPECIAL, EXEMPLARY, OR CONSEQUENTIAL DAMAGES (INCLUDING BUT NOT LIMITED TO
    49                           ; PROCUREMENT OF SUBSTITUTE GOODS OR SERVICES; LOSS OF USE, DATA OR PROFITS; OR BUSINESS
    50                           ; INTERRUPTION) HOWSOEVER CAUSED AND ON ANY THEORY OF LIABILITY, WHETHER IN CONTRACT, ST
      +                          RICT
    51                           ; LIABILITY, OR TORT (INCLUDING NEGLIGENCE OR OTHERWISE) ARISING IN ANY WAY OUT OF THE U
      +                          SE OF
    52                           ; THIS SOFTWARE, EVEN IF ADVISED OF THE POSSIBILITY OF SUCH DAMAGE.
    53                           ; 
    54                           ; 
    55                           ; Code-generator required, PIC16F1459 Definitions
    56                           ; 
    57                           ; SFR Addresses
    58  0000                     	;# 
    59  0001                     	;# 
    60  0002                     	;# 
    61  0003                     	;# 
    62  0004                     	;# 
    63  0005                     	;# 
    64  0006                     	;# 
    65  0007                     	;# 
    66  0008                     	;# 
    67  0009                     	;# 
    68  000A                     	;# 
    69  000B                     	;# 
    70  000C                     	;# 
    71  000D                     	;# 
    72  000E                     	;# 
    73  0011                     	;# 
    74  0012                     	;# 
    75  0015                     	;# 
    76  0016                     	;# 
    77  0016                     	;# 
    78  0017                     	;# 
    79  0018                     	;# 
    80  0019                     	;# 
    81  001A                     	;# 
    82  001B                     	;# 
    83  001C                     	;# 
    84  008C                     	;# 
    85  008D                     	;# 
    86  008E                     	;# 
    87  0091                     	;# 
    88  0092                     	;# 
    89  0095                     	;# 
    90  0096                     	;# 
    91  0097                     	;# 
    92  0098                     	;# 
    93  0099                     	;# 
    94  009A                     	;# 
    95  009B                     	;# 
    96  009B                     	;# 
    97  009C                     	;# 
    98  009D                     	;# 
    99  009E                     	;# 
   100  009F                     	;# 
   101  010C                     	;# 
   102  010D                     	;# 
   103  010E                     	;# 
   104  0111                     	;# 
   105  0112                     	;# 
   106  0113                     	;# 
   107  0114                     	;# 
   108  0115                     	;# 
   109  0116                     	;# 
   110  0117                     	;# 
   111  0118                     	;# 
   112  0119                     	;# 
   113  011D                     	;# 
   114  018C                     	;# 
   115  018D                     	;# 
   116  018E                     	;# 
   117  0191                     	;# 
   118  0191                     	;# 
   119  0192                     	;# 
   120  0193                     	;# 
   121  0193                     	;# 
   122  0194                     	;# 
   123  0195                     	;# 
   124  0196                     	;# 
   125  0197                     	;# 
   126  0199                     	;# 
   127  019A                     	;# 
   128  019B                     	;# 
   129  019B                     	;# 
   130  019C                     	;# 
   131  019D                     	;# 
   132  019E                     	;# 
   133  019F                     	;# 
   134  020C                     	;# 
   135  020D                     	;# 
   136  0211                     	;# 
   137  0211                     	;# 
   138  0212                     	;# 
   139  0212                     	;# 
   140  0213                     	;# 
   141  0213                     	;# 
   142  0214                     	;# 
   143  0214                     	;# 
   144  0215                     	;# 
   145  0215                     	;# 
   146  0215                     	;# 
   147  0216                     	;# 
   148  0216                     	;# 
   149  0217                     	;# 
   150  0217                     	;# 
   151  0391                     	;# 
   152  0392                     	;# 
   153  0393                     	;# 
   154  0394                     	;# 
   155  0395                     	;# 
   156  0396                     	;# 
   157  039A                     	;# 
   158  039B                     	;# 
   159  0611                     	;# 
   160  0612                     	;# 
   161  0613                     	;# 
   162  0613                     	;# 
   163  0614                     	;# 
   164  0615                     	;# 
   165  0616                     	;# 
   166  0616                     	;# 
   167  0691                     	;# 
   168  0692                     	;# 
   169  0693                     	;# 
   170  0694                     	;# 
   171  0695                     	;# 
   172  0E8E                     	;# 
   173  0E8F                     	;# 
   174  0E90                     	;# 
   175  0E91                     	;# 
   176  0E92                     	;# 
   177  0E93                     	;# 
   178  0E94                     	;# 
   179  0E94                     	;# 
   180  0E95                     	;# 
   181  0E96                     	;# 
   182  0E97                     	;# 
   183  0E98                     	;# 
   184  0E99                     	;# 
   185  0E9A                     	;# 
   186  0E9B                     	;# 
   187  0E9C                     	;# 
   188  0E9D                     	;# 
   189  0E9E                     	;# 
   190  0E9F                     	;# 
   191  0FE4                     	;# 
   192  0FE5                     	;# 
   193  0FE6                     	;# 
   194  0FE7                     	;# 
   195  0FE8                     	;# 
   196  0FE9                     	;# 
   197  0FEA                     	;# 
   198  0FEB                     	;# 
   199  0FED                     	;# 
   200  0FEE                     	;# 
   201  0FEF                     	;# 
   202  0000                     	;# 
   203  0001                     	;# 
   204  0002                     	;# 
   205  0003                     	;# 
   206  0004                     	;# 
   207  0005                     	;# 
   208  0006                     	;# 
   209  0007                     	;# 
   210  0008                     	;# 
   211  0009                     	;# 
   212  000A                     	;# 
   213  000B                     	;# 
   214  000C                     	;# 
   215  000D                     	;# 
   216  000E                     	;# 
   217  0011                     	;# 
   218  0012                     	;# 
   219  0015                     	;# 
   220  0016                     	;# 
   221  0016                     	;# 
   222  0017                     	;# 
   223  0018                     	;# 
   224  0019                     	;# 
   225  001A                     	;# 
   226  001B                     	;# 
   227  001C                     	;# 
   228  008C                     	;# 
   229  008D                     	;# 
   230  008E                     	;# 
   231  0091                     	;# 
   232  0092                     	;# 
   233  0095                     	;# 
   234  0096                     	;# 
   235  0097                     	;# 
   236  0098                     	;# 
   237  0099                     	;# 
   238  009A                     	;# 
   239  009B                     	;# 
   240  009B                     	;# 
   241  009C                     	;# 
   242  009D                     	;# 
   243  009E                     	;# 
   244  009F                     	;# 
   245  010C                     	;# 
   246  010D                     	;# 
   247  010E                     	;# 
   248  0111                     	;# 
   249  0112                     	;# 
   250  0113                     	;# 
   251  0114                     	;# 
   252  0115                     	;# 
   253  0116                     	;# 
   254  0117                     	;# 
   255  0118                     	;# 
   256  0119                     	;# 
   257  011D                     	;# 
   258  018C                     	;# 
   259  018D                     	;# 
   260  018E                     	;# 
   261  0191                     	;# 
   262  0191                     	;# 
   263  0192                     	;# 
   264  0193                     	;# 
   265  0193                     	;# 
   266  0194                     	;# 
   267  0195                     	;# 
   268  0196                     	;# 
   269  0197                     	;# 
   270  0199                     	;# 
   271  019A                     	;# 
   272  019B                     	;# 
   273  019B                     	;# 
   274  019C                     	;# 
   275  019D                     	;# 
   276  019E                     	;# 
   277  019F                     	;# 
   278  020C                     	;# 
   279  020D                     	;# 
   280  0211                     	;# 
   281  0211                     	;# 
   282  0212                     	;# 
   283  0212                     	;# 
   284  0213                     	;# 
   285  0213                     	;# 
   286  0214                     	;# 
   287  0214                     	;# 
   288  0215                     	;# 
   289  0215                     	;# 
   290  0215                     	;# 
   291  0216                     	;# 
   292  0216                     	;# 
   293  0217                     	;# 
   294  0217                     	;# 
   295  0391                     	;# 
   296  0392                     	;# 
   297  0393                     	;# 
   298  0394                     	;# 
   299  0395                     	;# 
   300  0396                     	;# 
   301  039A                     	;# 
   302  039B                     	;# 
   303  0611                     	;# 
   304  0612                     	;# 
   305  0613                     	;# 
   306  0613                     	;# 
   307  0614                     	;# 
   308  0615                     	;# 
   309  0616                     	;# 
   310  0616                     	;# 
   311  0691                     	;# 
   312  0692                     	;# 
   313  0693                     	;# 
   314  0694                     	;# 
   315  0695                     	;# 
   316  0E8E                     	;# 
   317  0E8F                     	;# 
   318  0E90                     	;# 
   319  0E91                     	;# 
   320  0E92                     	;# 
   321  0E93                     	;# 
   322  0E94                     	;# 
   323  0E94                     	;# 
   324  0E95                     	;# 
   325  0E96                     	;# 
   326  0E97                     	;# 
   327  0E98                     	;# 
   328  0E99                     	;# 
   329  0E9A                     	;# 
   330  0E9B                     	;# 
   331  0E9C                     	;# 
   332  0E9D                     	;# 
   333  0E9E                     	;# 
   334  0E9F                     	;# 
   335  0FE4                     	;# 
   336  0FE5                     	;# 
   337  0FE6                     	;# 
   338  0FE7                     	;# 
   339  0FE8                     	;# 
   340  0FE9                     	;# 
   341  0FEA                     	;# 
   342  0FEB                     	;# 
   343  0FED                     	;# 
   344  0FEE                     	;# 
   345  0FEF                     	;# 
   346  0000                     	;# 
   347  0001                     	;# 
   348  0002                     	;# 
   349  0003                     	;# 
   350  0004                     	;# 
   351  0005                     	;# 
   352  0006                     	;# 
   353  0007                     	;# 
   354  0008                     	;# 
   355  0009                     	;# 
   356  000A                     	;# 
   357  000B                     	;# 
   358  000C                     	;# 
   359  000D                     	;# 
   360  000E                     	;# 
   361  0011                     	;# 
   362  0012                     	;# 
   363  0015                     	;# 
   364  0016                     	;# 
   365  0016                     	;# 
   366  0017                     	;# 
   367  0018                     	;# 
   368  0019                     	;# 
   369  001A                     	;# 
   370  001B                     	;# 
   371  001C                     	;# 
   372  008C                     	;# 
   373  008D                     	;# 
   374  008E                     	;# 
   375  0091                     	;# 
   376  0092                     	;# 
   377  0095                     	;# 
   378  0096                     	;# 
   379  0097                     	;# 
   380  0098                     	;# 
   381  0099                     	;# 
   382  009A                     	;# 
   383  009B                     	;# 
   384  009B                     	;# 
   385  009C                     	;# 
   386  009D                     	;# 
   387  009E                     	;# 
   388  009F                     	;# 
   389  010C                     	;# 
   390  010D                     	;# 
   391  010E                     	;# 
   392  0111                     	;# 
   393  0112                     	;# 
   394  0113                     	;# 
   395  0114                     	;# 
   396  0115                     	;# 
   397  0116                     	;# 
   398  0117                     	;# 
   399  0118                     	;# 
   400  0119                     	;# 
   401  011D                     	;# 
   402  018C                     	;# 
   403  018D                     	;# 
   404  018E                     	;# 
   405  0191                     	;# 
   406  0191                     	;# 
   407  0192                     	;# 
   408  0193                     	;# 
   409  0193                     	;# 
   410  0194                     	;# 
   411  0195                     	;# 
   412  0196                     	;# 
   413  0197                     	;# 
   414  0199                     	;# 
   415  019A                     	;# 
   416  019B                     	;# 
   417  019B                     	;# 
   418  019C                     	;# 
   419  019D                     	;# 
   420  019E                     	;# 
   421  019F                     	;# 
   422  020C                     	;# 
   423  020D                     	;# 
   424  0211                     	;# 
   425  0211                     	;# 
   426  0212                     	;# 
   427  0212                     	;# 
   428  0213                     	;# 
   429  0213                     	;# 
   430  0214                     	;# 
   431  0214                     	;# 
   432  0215                     	;# 
   433  0215                     	;# 
   434  0215                     	;# 
   435  0216                     	;# 
   436  0216                     	;# 
   437  0217                     	;# 
   438  0217                     	;# 
   439  0391                     	;# 
   440  0392                     	;# 
   441  0393                     	;# 
   442  0394                     	;# 
   443  0395                     	;# 
   444  0396                     	;# 
   445  039A                     	;# 
   446  039B                     	;# 
   447  0611                     	;# 
   448  0612                     	;# 
   449  0613                     	;# 
   450  0613                     	;# 
   451  0614                     	;# 
   452  0615                     	;# 
   453  0616                     	;# 
   454  0616                     	;# 
   455  0691                     	;# 
   456  0692                     	;# 
   457  0693                     	;# 
   458  0694                     	;# 
   459  0695                     	;# 
   460  0E8E                     	;# 
   461  0E8F                     	;# 
   462  0E90                     	;# 
   463  0E91                     	;# 
   464  0E92                     	;# 
   465  0E93                     	;# 
   466  0E94                     	;# 
   467  0E94                     	;# 
   468  0E95                     	;# 
   469  0E96                     	;# 
   470  0E97                     	;# 
   471  0E98                     	;# 
   472  0E99                     	;# 
   473  0E9A                     	;# 
   474  0E9B                     	;# 
   475  0E9C                     	;# 
   476  0E9D                     	;# 
   477  0E9E                     	;# 
   478  0E9F                     	;# 
   479  0FE4                     	;# 
   480  0FE5                     	;# 
   481  0FE6                     	;# 
   482  0FE7                     	;# 
   483  0FE8                     	;# 
   484  0FE9                     	;# 
   485  0FEA                     	;# 
   486  0FEB                     	;# 
   487  0FED                     	;# 
   488  0FEE                     	;# 
   489  0FEF                     	;# 
   490                           
   491 ;; Function _rainbowCycle is unused but had its address taken
   492  0000                     
   493                           	psect	idataBANK0
   494  0CB0                     __pidataBANK0:
   495                           
   496                           ;initializer for _tick
   497  0CB0  3401               	retlw	1
   498  0CB1  3400               	retlw	0
   499                           
   500                           ;initializer for _colorFunctions
   501  0CB2  3400               	retlw	0
   502  0CB3  3400               	retlw	0
   503                           
   504                           ;initializer for _numFunctions
   505  0CB4  3402               	retlw	2
   506  0CB5  3400               	retlw	0
   507  000C                     _PORTAbits	set	12
   508  000D                     _PORTBbits	set	13
   509  009C                     _ADRESH	set	156
   510  009F                     _ADCON2	set	159
   511  009E                     _ADCON1	set	158
   512  009D                     _ADCON0	set	157
   513  008E                     _TRISCbits	set	142
   514  008E                     _TRISC	set	142
   515  008D                     _TRISB	set	141
   516  008C                     _TRISA	set	140
   517  0095                     _OPTION_REG	set	149
   518  0099                     _OSCCON	set	153
   519  04E9                     _GO	set	1257
   520  04E8                     _ADON	set	1256
   521  04D6                     _PLLRDY	set	1238
   522  010E                     _LATCbits	set	270
   523  010E                     _LATC	set	270
   524  010D                     _LATB	set	269
   525  010C                     _LATA	set	268
   526  018E                     _ANSELC	set	398
   527  018D                     _ANSELB	set	397
   528  018C                     _ANSELA	set	396
   529  020D                     _WPUB	set	525
   530  020C                     _WPUA	set	524
   531  039B                     _ACTCON	set	923
   532                           
   533                           	psect	cinit
   534  0FD5                     start_initialization:	
   535                           ; #config settings
   536                           
   537  0FD5                     __initialization:
   538                           
   539                           ; Initialize objects allocated to BANK0
   540  0FD5  30B0               	movlw	low __pidataBANK0
   541  0FD6  0084               	movwf	4
   542  0FD7  308C               	movlw	(high __pidataBANK0)| (0+128)
   543  0FD8  0085               	movwf	5
   544  0FD9  0012               	moviw fsr0++
   545  0FDA  00E8               	movwf	__pdataBANK0& (0+127)
   546  0FDB  0012               	moviw fsr0++
   547  0FDC  00E9               	movwf	(__pdataBANK0+1)& (0+127)
   548  0FDD  0012               	moviw fsr0++
   549  0FDE  00EA               	movwf	(__pdataBANK0+2)& (0+127)
   550  0FDF  0012               	moviw fsr0++
   551  0FE0  00EB               	movwf	(__pdataBANK0+3)& (0+127)
   552  0FE1  0012               	moviw fsr0++
   553  0FE2  00EC               	movwf	(__pdataBANK0+4)& (0+127)
   554  0FE3  0012               	moviw fsr0++
   555  0FE4  00ED               	movwf	(__pdataBANK0+5)& (0+127)
   556                           
   557                           ; Clear objects allocated to BANK0
   558  0FE5  3020               	movlw	low __pbssBANK0
   559  0FE6  0084               	movwf	4
   560  0FE7  3000               	movlw	high __pbssBANK0
   561  0FE8  0085               	movwf	5
   562  0FE9  3030               	movlw	48
   563  0FEA  318C  24AA  318F   	fcall	clear_ram0
   564                           
   565                           ; Clear objects allocated to BANK1
   566  0FED  30A0               	movlw	low __pbssBANK1
   567  0FEE  0084               	movwf	4
   568  0FEF  3000               	movlw	high __pbssBANK1
   569  0FF0  0085               	movwf	5
   570  0FF1  302D               	movlw	45
   571  0FF2  318C  24AA  318F   	fcall	clear_ram0
   572                           
   573                           ; Clear objects allocated to BANK2
   574  0FF5  3020               	movlw	low __pbssBANK2
   575  0FF6  0084               	movwf	4
   576  0FF7  3001               	movlw	high __pbssBANK2
   577  0FF8  0085               	movwf	5
   578  0FF9  302D               	movlw	45
   579  0FFA  318C  24AA  318F   	fcall	clear_ram0
   580  0FFD                     end_of_initialization:	
   581                           ;End of C runtime variable initialization code
   582                           
   583  0FFD                     __end_of__initialization:
   584  0FFD  0020               	movlb	0
   585  0FFE  318D  2DBA         	ljmp	_main	;jump to C main() function
   586                           
   587                           	psect	bssBANK0
   588  0020                     __pbssBANK0:
   589  0020                     _ticks_left:
   590  0020                     	ds	2
   591  0022                     _left_shift:
   592  0022                     	ds	1
   593  0023                     _reds:
   594  0023                     	ds	45
   595                           
   596                           	psect	dataBANK0
   597  0068                     __pdataBANK0:
   598  0068                     _tick:
   599  0068                     	ds	2
   600  006A                     _colorFunctions:
   601  006A                     	ds	2
   602  006C                     _numFunctions:
   603  006C                     	ds	2
   604                           
   605                           	psect	bssBANK1
   606  00A0                     __pbssBANK1:
   607  00A0                     _greens:
   608  00A0                     	ds	45
   609                           
   610                           	psect	bssBANK2
   611  0120                     __pbssBANK2:
   612  0120                     _blues:
   613  0120                     	ds	45
   614                           
   615                           	psect	clrtext
   616  0CAA                     clear_ram0:	
   617                           ;	Called with FSR0 containing the base address, and
   618                           ;	WREG with the size to clear
   619                           
   620  0CAA  0064               	clrwdt	;clear the watchdog before getting into this loop
   621  0CAB                     clrloop0:
   622  0CAB  0180               	clrf	0	;clear RAM location pointed to by FSR
   623  0CAC  3101               	addfsr 0,1
   624  0CAD  0B89               	decfsz	9,f	;Have we reached the end of clearing yet?
   625  0CAE  2CAB               	goto	clrloop0	;have we reached the end yet?
   626  0CAF  3400               	retlw	0	;all done for this memory range, return
   627                           
   628                           	psect	cstackCOMMON
   629  0070                     __pcstackCOMMON:
   630  0070                     ?_neopixel_colour_send:
   631  0070                     ??_neopixel_colour_send:	
   632                           ; 1 bytes @ 0x0
   633                           
   634  0070                     ?_OSC_config:	
   635                           ; 1 bytes @ 0x0
   636                           
   637  0070                     ??_OSC_config:	
   638                           ; 1 bytes @ 0x0
   639                           
   640  0070                     ?_UBMP4_config:	
   641                           ; 1 bytes @ 0x0
   642                           
   643  0070                     ??_UBMP4_config:	
   644                           ; 1 bytes @ 0x0
   645                           
   646  0070                     ?___bmul:	
   647                           ; 1 bytes @ 0x0
   648                           
   649  0070                     ?_main:	
   650                           ; 1 bytes @ 0x0
   651                           
   652  0070                     ?___wmul:	
   653                           ; 2 bytes @ 0x0
   654                           
   655  0070                     ?___awdiv:	
   656                           ; 2 bytes @ 0x0
   657                           
   658  0070                     ___bmul@multiplicand:	
   659                           ; 2 bytes @ 0x0
   660                           
   661  0070                     ___wmul@multiplier:	
   662                           ; 1 bytes @ 0x0
   663                           
   664  0070                     ___awdiv@divisor:	
   665                           ; 2 bytes @ 0x0
   666                           
   667                           
   668                           ; 2 bytes @ 0x0
   669  0070                     	ds	1
   670  0071                     ??___bmul:
   671  0071                     neopixel_colour_send@colour:	
   672                           ; 1 bytes @ 0x1
   673                           
   674                           
   675                           ; 1 bytes @ 0x1
   676  0071                     	ds	1
   677  0072                     neopixel_colour_send@bits:
   678  0072                     ___bmul@product:	
   679                           ; 1 bytes @ 0x2
   680                           
   681  0072                     ___wmul@multiplicand:	
   682                           ; 1 bytes @ 0x2
   683                           
   684  0072                     ___awdiv@dividend:	
   685                           ; 2 bytes @ 0x2
   686                           
   687                           
   688                           ; 2 bytes @ 0x2
   689  0072                     	ds	1
   690  0073                     ?_neopixel_fill_a:
   691  0073                     neopixel_fill_a@red:	
   692                           ; 1 bytes @ 0x3
   693                           
   694  0073                     ___bmul@multiplier:	
   695                           ; 1 bytes @ 0x3
   696                           
   697                           
   698                           ; 1 bytes @ 0x3
   699  0073                     	ds	1
   700  0074                     ??___wmul:
   701  0074                     ??___awdiv:	
   702                           ; 1 bytes @ 0x4
   703                           
   704  0074                     neopixel_fill_a@green:	
   705                           ; 1 bytes @ 0x4
   706                           
   707  0074                     ___wmul@product:	
   708                           ; 1 bytes @ 0x4
   709                           
   710                           
   711                           ; 2 bytes @ 0x4
   712  0074                     	ds	1
   713  0075                     neopixel_fill_a@blue:
   714  0075                     ___awdiv@counter:	
   715                           ; 1 bytes @ 0x5
   716                           
   717                           
   718                           ; 1 bytes @ 0x5
   719  0075                     	ds	1
   720  0076                     ??_neopixel_fill_a:
   721  0076                     ___awdiv@sign:	
   722                           ; 1 bytes @ 0x6
   723                           
   724                           
   725                           ; 1 bytes @ 0x6
   726  0076                     	ds	1
   727  0077                     neopixel_fill_a@leds:
   728  0077                     ___awdiv@quotient:	
   729                           ; 1 bytes @ 0x7
   730                           
   731                           
   732                           ; 2 bytes @ 0x7
   733  0077                     	ds	1
   734  0078                     neopixel_fill_a@ledNum:
   735                           
   736                           ; 1 bytes @ 0x8
   737  0078                     	ds	1
   738  0079                     ?_hsvtorgb:
   739  0079                     hsvtorgb@g:	
   740                           ; 1 bytes @ 0x9
   741                           
   742                           
   743                           ; 1 bytes @ 0x9
   744  0079                     	ds	1
   745  007A                     hsvtorgb@b:
   746                           
   747                           ; 1 bytes @ 0xA
   748  007A                     	ds	1
   749  007B                     hsvtorgb@h:
   750                           
   751                           ; 1 bytes @ 0xB
   752  007B                     	ds	1
   753  007C                     hsvtorgb@s:
   754                           
   755                           ; 1 bytes @ 0xC
   756  007C                     	ds	1
   757  007D                     hsvtorgb@v:
   758                           
   759                           ; 1 bytes @ 0xD
   760  007D                     	ds	1
   761                           
   762                           	psect	cstackBANK0
   763  0050                     __pcstackBANK0:
   764  0050                     ??_hsvtorgb:
   765                           
   766                           ; 1 bytes @ 0x0
   767  0050                     	ds	8
   768  0058                     _hsvtorgb$685:
   769                           
   770                           ; 1 bytes @ 0x8
   771  0058                     	ds	1
   772  0059                     _hsvtorgb$686:
   773                           
   774                           ; 2 bytes @ 0x9
   775  0059                     	ds	2
   776  005B                     hsvtorgb@region:
   777                           
   778                           ; 1 bytes @ 0xB
   779  005B                     	ds	1
   780  005C                     hsvtorgb@fpart:
   781                           
   782                           ; 1 bytes @ 0xC
   783  005C                     	ds	1
   784  005D                     hsvtorgb@q:
   785                           
   786                           ; 1 bytes @ 0xD
   787  005D                     	ds	1
   788  005E                     hsvtorgb@t:
   789                           
   790                           ; 1 bytes @ 0xE
   791  005E                     	ds	1
   792  005F                     hsvtorgb@p:
   793                           
   794                           ; 1 bytes @ 0xF
   795  005F                     	ds	1
   796  0060                     hsvtorgb@r:
   797                           
   798                           ; 1 bytes @ 0x10
   799  0060                     	ds	1
   800  0061                     ??_main:
   801                           
   802                           ; 1 bytes @ 0x11
   803  0061                     	ds	6
   804  0067                     main@i:
   805                           
   806                           ; 1 bytes @ 0x17
   807  0067                     	ds	1
   808                           
   809                           	psect	maintext
   810  0DBA                     __pmaintext:	
   811 ;;
   812 ;;Main: autosize = 0, tempsize = 6, incstack = 0, save=0
   813 ;;
   814 ;; *************** function _main *****************
   815 ;; Defined at:
   816 ;;		line 38 in file "main.c"
   817 ;; Parameters:    Size  Location     Type
   818 ;;		None
   819 ;; Auto vars:     Size  Location     Type
   820 ;;  i               1   23[BANK0 ] unsigned char 
   821 ;;  blue            2    0        int 
   822 ;;  green           2    0        int 
   823 ;;  red             2    0        int 
   824 ;; Return value:  Size  Location     Type
   825 ;;                  2  109[None  ] int 
   826 ;; Registers used:
   827 ;;		wreg, fsr0l, fsr0h, fsr1l, fsr1h, status,2, status,0, pclath, cstack
   828 ;; Tracked objects:
   829 ;;		On entry : B1F/0
   830 ;;		On exit  : 0/0
   831 ;;		Unchanged: 0/0
   832 ;; Data sizes:     COMMON   BANK0   BANK1   BANK2   BANK3   BANK4   BANK5   BANK6   BANK7   BANK8   BANK9  BANK10  BANK1
      +1  BANK12
   833 ;;      Params:         0       0       0       0       0       0       0       0       0       0       0       0       
      +0       0
   834 ;;      Locals:         0       1       0       0       0       0       0       0       0       0       0       0       
      +0       0
   835 ;;      Temps:          0       6       0       0       0       0       0       0       0       0       0       0       
      +0       0
   836 ;;      Totals:         0       7       0       0       0       0       0       0       0       0       0       0       
      +0       0
   837 ;;Total ram usage:        7 bytes
   838 ;; Hardware stack levels required when called: 2
   839 ;; This function calls:
   840 ;;		_OSC_config
   841 ;;		_UBMP4_config
   842 ;;		_hsvtorgb
   843 ;;		_neopixel_fill_a
   844 ;; This function is called by:
   845 ;;		Startup code after reset
   846 ;; This function uses a non-reentrant model
   847 ;;
   848                           
   849                           
   850                           ;psect for function _main
   851  0DBA                     _main:
   852  0DBA                     l1104:	
   853                           ;incstack = 0
   854                           ; Regs used in _main: [wreg-fsr1h+status,2+status,0+pclath+cstack]
   855                           
   856                           
   857                           ;main.c: 40:     OSC_config();
   858  0DBA  318C  24B6  318D   	fcall	_OSC_config
   859                           
   860                           ;main.c: 41:     UBMP4_config();
   861  0DBD  318C  24F0  318D   	fcall	_UBMP4_config
   862  0DC0                     l1106:
   863  0DC0                     l1108:
   864  0DC0                     l1110:
   865  0DC0                     l1112:
   866                           
   867                           ;main.c: 49:         neopixel_fill_a(45, reds, greens, blues);
   868  0DC0  3023               	movlw	(low (_reds| 0))& (0+255)
   869  0DC1  0020               	movlb	0	; select bank0
   870  0DC2  00E1               	movwf	??_main
   871  0DC3  0861               	movf	??_main,w
   872  0DC4  00F3               	movwf	neopixel_fill_a@red
   873  0DC5  30A0               	movlw	(low (_greens| 0))& (0+255)
   874  0DC6  00E2               	movwf	??_main+1
   875  0DC7  0862               	movf	??_main+1,w
   876  0DC8  00F4               	movwf	neopixel_fill_a@green
   877  0DC9  3020               	movlw	(low (_blues| (0+256)))& (0+255)
   878  0DCA  00E3               	movwf	??_main+2
   879  0DCB  0863               	movf	??_main+2,w
   880  0DCC  00F5               	movwf	neopixel_fill_a@blue
   881  0DCD  302D               	movlw	45
   882  0DCE  318D  252E  318D   	fcall	_neopixel_fill_a
   883  0DD1                     l1114:
   884                           
   885                           ;main.c: 51:         if(ticks_left == 0) {
   886  0DD1  0020               	movlb	0	; select bank0
   887  0DD2  0820               	movf	_ticks_left,w
   888  0DD3  0421               	iorwf	_ticks_left+1,w
   889  0DD4  1D03               	btfss	3,2
   890  0DD5  2DD7               	goto	u611
   891  0DD6  2DD8               	goto	u610
   892  0DD7                     u611:
   893  0DD7  2DFA               	goto	l1132
   894  0DD8                     u610:
   895  0DD8                     l1116:
   896                           
   897                           ;main.c: 52:             if(PORTBbits.RB4 == 0 && left_shift != 8) {
   898  0DD8  1A0D               	btfsc	13,4	;volatile
   899  0DD9  2DDB               	goto	u621
   900  0DDA  2DDC               	goto	u620
   901  0DDB                     u621:
   902  0DDB  2DEA               	goto	l1124
   903  0DDC                     u620:
   904  0DDC                     l1118:
   905  0DDC  3008               	movlw	8
   906  0DDD  0622               	xorwf	_left_shift,w
   907  0DDE  1903               	btfsc	3,2
   908  0DDF  2DE1               	goto	u631
   909  0DE0  2DE2               	goto	u630
   910  0DE1                     u631:
   911  0DE1  2DEA               	goto	l1124
   912  0DE2                     u630:
   913  0DE2                     l1120:
   914                           
   915                           ;main.c: 53:                 left_shift++;
   916  0DE2  3001               	movlw	1
   917  0DE3  00E1               	movwf	??_main
   918  0DE4  0861               	movf	??_main,w
   919  0DE5  07A2               	addwf	_left_shift,f
   920  0DE6                     l1122:
   921                           
   922                           ;main.c: 54:                 ticks_left = 20;
   923  0DE6  3014               	movlw	20
   924  0DE7  00A0               	movwf	_ticks_left
   925  0DE8  3000               	movlw	0
   926  0DE9  00A1               	movwf	_ticks_left+1
   927  0DEA                     l1124:
   928                           
   929                           ;main.c: 56:             if(PORTBbits.RB5 == 0 && left_shift != 0) {
   930  0DEA  1A8D               	btfsc	13,5	;volatile
   931  0DEB  2DED               	goto	u641
   932  0DEC  2DEE               	goto	u640
   933  0DED                     u641:
   934  0DED  2DFE               	goto	l114
   935  0DEE                     u640:
   936  0DEE                     l1126:
   937  0DEE  0822               	movf	_left_shift,w
   938  0DEF  1903               	btfsc	3,2
   939  0DF0  2DF2               	goto	u651
   940  0DF1  2DF3               	goto	u650
   941  0DF2                     u651:
   942  0DF2  2DFE               	goto	l114
   943  0DF3                     u650:
   944  0DF3                     l1128:
   945                           
   946                           ;main.c: 57:                 left_shift--;
   947  0DF3  3001               	movlw	1
   948  0DF4  02A2               	subwf	_left_shift,f
   949  0DF5                     l1130:
   950                           
   951                           ;main.c: 58:                 ticks_left = 20;
   952  0DF5  3014               	movlw	20
   953  0DF6  00A0               	movwf	_ticks_left
   954  0DF7  3000               	movlw	0
   955  0DF8  00A1               	movwf	_ticks_left+1
   956  0DF9  2DFE               	goto	l114
   957  0DFA                     l1132:
   958                           
   959                           ;main.c: 61:             ticks_left--;
   960  0DFA  30FF               	movlw	255
   961  0DFB  07A0               	addwf	_ticks_left,f
   962  0DFC  30FF               	movlw	255
   963  0DFD  3DA1               	addwfc	_ticks_left+1,f
   964  0DFE                     l114:	
   965                           ;main.c: 62:         }
   966                           
   967                           
   968                           ;main.c: 64:         _delay((unsigned long)((4)*(48000000/4000.0)));
   969  0DFE  303F               	movlw	63
   970  0DFF  0020               	movlb	0	; select bank0
   971  0E00  00E1               	movwf	??_main
   972  0E01  3055               	movlw	85
   973  0E02                     u737:
   974  0E02  0B89               	decfsz	9,f
   975  0E03  2E02               	goto	u737
   976  0E04  0BE1               	decfsz	??_main,f
   977  0E05  2E02               	goto	u737
   978  0E06                     l1134:
   979                           
   980                           ;main.c: 66:         for(unsigned char i = 0; i < 45; i++) {
   981  0E06  0020               	movlb	0	; select bank0
   982  0E07  01E7               	clrf	main@i
   983  0E08                     l1140:
   984                           
   985                           ;main.c: 67:             hsvtorgb(&reds[i], &greens[i], &blues[i], (unsigned char)(tick 
      +                          * 2 + 1) + (i * 2), 255, 255);
   986  0E08  0867               	movf	main@i,w
   987  0E09  3EA0               	addlw	(low (_greens| 0))& (0+255)
   988  0E0A  00E1               	movwf	??_main
   989  0E0B  0861               	movf	??_main,w
   990  0E0C  00F9               	movwf	hsvtorgb@g
   991  0E0D  0867               	movf	main@i,w
   992  0E0E  3E20               	addlw	(low (_blues| (0+256)))& (0+255)
   993  0E0F  00E2               	movwf	??_main+1
   994  0E10  0862               	movf	??_main+1,w
   995  0E11  00FA               	movwf	hsvtorgb@b
   996  0E12  0867               	movf	main@i,w
   997  0E13  00E3               	movwf	??_main+2
   998  0E14  3001               	movlw	1
   999  0E15                     u665:
  1000  0E15  35E3               	lslf	??_main+2,f
  1001  0E16  0B89               	decfsz	9,f
  1002  0E17  2E15               	goto	u665
  1003  0E18  3568               	lslf	_tick,w
  1004  0E19  0763               	addwf	??_main+2,w
  1005  0E1A  3E01               	addlw	1
  1006  0E1B  00E4               	movwf	??_main+3
  1007  0E1C  0864               	movf	??_main+3,w
  1008  0E1D  00FB               	movwf	hsvtorgb@h
  1009  0E1E  30FF               	movlw	255
  1010  0E1F  00E5               	movwf	??_main+4
  1011  0E20  0865               	movf	??_main+4,w
  1012  0E21  00FC               	movwf	hsvtorgb@s
  1013  0E22  30FF               	movlw	255
  1014  0E23  00E6               	movwf	??_main+5
  1015  0E24  0866               	movf	??_main+5,w
  1016  0E25  00FD               	movwf	hsvtorgb@v
  1017  0E26  0867               	movf	main@i,w
  1018  0E27  3E23               	addlw	(low (_reds| 0))& (0+255)
  1019  0E28  318E  2664  318D   	fcall	_hsvtorgb
  1020  0E2B                     l1142:
  1021                           
  1022                           ;main.c: 68:             reds[i] >>= left_shift;
  1023  0E2B  0020               	movlb	0	; select bank0
  1024  0E2C  0867               	movf	main@i,w
  1025  0E2D  3E23               	addlw	(low (_reds| 0))& (0+255)
  1026  0E2E  0086               	movwf	6
  1027  0E2F  0187               	clrf	7
  1028  0E30  0A22               	incf	_left_shift,w
  1029  0E31  2E34               	goto	u670
  1030  0E32                     u675:
  1031  0E32  1003               	clrc
  1032  0E33  0C81               	rrf	1,f
  1033  0E34                     u670:
  1034  0E34  3EFF               	addlw	-1
  1035  0E35  1D03               	skipz
  1036  0E36  2E32               	goto	u675
  1037  0E37                     l1144:
  1038                           
  1039                           ;main.c: 69:             greens[i] >>= left_shift;
  1040  0E37  0867               	movf	main@i,w
  1041  0E38  3EA0               	addlw	(low (_greens| 0))& (0+255)
  1042  0E39  0086               	movwf	6
  1043  0E3A  0187               	clrf	7
  1044  0E3B  0A22               	incf	_left_shift,w
  1045  0E3C  2E3F               	goto	u680
  1046  0E3D                     u685:
  1047  0E3D  1003               	clrc
  1048  0E3E  0C81               	rrf	1,f
  1049  0E3F                     u680:
  1050  0E3F  3EFF               	addlw	-1
  1051  0E40  1D03               	skipz
  1052  0E41  2E3D               	goto	u685
  1053  0E42                     l1146:
  1054                           
  1055                           ;main.c: 70:             blues[i] >>= left_shift;
  1056  0E42  0867               	movf	main@i,w
  1057  0E43  3E20               	addlw	(low (_blues| (0+256)))& (0+255)
  1058  0E44  0086               	movwf	6
  1059  0E45  3001               	movlw	1	; select bank2/3
  1060  0E46  0087               	movwf	7
  1061  0E47  0A22               	incf	_left_shift,w
  1062  0E48  2E4B               	goto	u690
  1063  0E49                     u695:
  1064  0E49  1003               	clrc
  1065  0E4A  0C81               	rrf	1,f
  1066  0E4B                     u690:
  1067  0E4B  3EFF               	addlw	-1
  1068  0E4C  1D03               	skipz
  1069  0E4D  2E49               	goto	u695
  1070  0E4E                     l1148:
  1071                           
  1072                           ;main.c: 71:         }
  1073  0E4E  3001               	movlw	1
  1074  0E4F  00E1               	movwf	??_main
  1075  0E50  0861               	movf	??_main,w
  1076  0E51  07E7               	addwf	main@i,f
  1077  0E52                     l1150:
  1078  0E52  302D               	movlw	45
  1079  0E53  0267               	subwf	main@i,w
  1080  0E54  1C03               	skipc
  1081  0E55  2E57               	goto	u701
  1082  0E56  2E58               	goto	u700
  1083  0E57                     u701:
  1084  0E57  2E08               	goto	l1140
  1085  0E58                     u700:
  1086  0E58                     l1152:
  1087                           
  1088                           ;main.c: 73:         tick += 1;
  1089  0E58  3001               	movlw	1
  1090  0E59  07E8               	addwf	_tick,f
  1091  0E5A  3000               	movlw	0
  1092  0E5B  3DE9               	addwfc	_tick+1,f
  1093  0E5C                     l1154:
  1094                           
  1095                           ;main.c: 76:         if(PORTAbits.RA3 == 0) {
  1096  0E5C  198C               	btfsc	12,3	;volatile
  1097  0E5D  2E5F               	goto	u711
  1098  0E5E  2E60               	goto	u710
  1099  0E5F                     u711:
  1100  0E5F  2DC0               	goto	l1112
  1101  0E60                     u710:
  1102  0E60                     l1156:
  1103  0E60  0001               	reset	;# 
  1104  0E61  2DC0               	goto	l1112
  1105  0E62  3188  2803         	ljmp	start
  1106  0E64                     __end_of_main:
  1107                           
  1108                           	psect	text1
  1109  0D2E                     __ptext1:	
  1110 ;; *************** function _neopixel_fill_a *****************
  1111 ;; Defined at:
  1112 ;;		line 14 in file "Neopixel.c"
  1113 ;; Parameters:    Size  Location     Type
  1114 ;;  leds            1    wreg     unsigned char 
  1115 ;;  red             1    3[COMMON] PTR unsigned char 
  1116 ;;		 -> reds(45), 
  1117 ;;  green           1    4[COMMON] PTR unsigned char 
  1118 ;;		 -> greens(45), 
  1119 ;;  blue            1    5[COMMON] PTR unsigned char 
  1120 ;;		 -> blues(45), 
  1121 ;; Auto vars:     Size  Location     Type
  1122 ;;  leds            1    7[COMMON] unsigned char 
  1123 ;;  ledNum          1    8[COMMON] unsigned char 
  1124 ;; Return value:  Size  Location     Type
  1125 ;;                  1    wreg      void 
  1126 ;; Registers used:
  1127 ;;		wreg, fsr1l, fsr1h, status,2, status,0, pclath, cstack
  1128 ;; Tracked objects:
  1129 ;;		On entry : 0/0
  1130 ;;		On exit  : 0/0
  1131 ;;		Unchanged: 0/0
  1132 ;; Data sizes:     COMMON   BANK0   BANK1   BANK2   BANK3   BANK4   BANK5   BANK6   BANK7   BANK8   BANK9  BANK10  BANK1
      +1  BANK12
  1133 ;;      Params:         3       0       0       0       0       0       0       0       0       0       0       0       
      +0       0
  1134 ;;      Locals:         2       0       0       0       0       0       0       0       0       0       0       0       
      +0       0
  1135 ;;      Temps:          1       0       0       0       0       0       0       0       0       0       0       0       
      +0       0
  1136 ;;      Totals:         6       0       0       0       0       0       0       0       0       0       0       0       
      +0       0
  1137 ;;Total ram usage:        6 bytes
  1138 ;; Hardware stack levels used: 1
  1139 ;; Hardware stack levels required when called: 1
  1140 ;; This function calls:
  1141 ;;		_neopixel_colour_send
  1142 ;; This function is called by:
  1143 ;;		_main
  1144 ;; This function uses a non-reentrant model
  1145 ;;
  1146                           
  1147                           
  1148                           ;psect for function _neopixel_fill_a
  1149  0D2E                     _neopixel_fill_a:
  1150                           
  1151                           ;incstack = 0
  1152                           ; Regs used in _neopixel_fill_a: [wreg+fsr1l+fsr1h+status,2+status,0+pclath+cstack]
  1153                           ;neopixel_fill_a@leds stored from wreg
  1154  0D2E  00F7               	movwf	neopixel_fill_a@leds
  1155  0D2F                     l1066:
  1156                           
  1157                           ;Neopixel.c: 15:     unsigned char ledNum = 0;
  1158  0D2F  01F8               	clrf	neopixel_fill_a@ledNum
  1159                           
  1160                           ;Neopixel.c: 16:     for(; ledNum != leds; ledNum++) {
  1161  0D30  2D54               	goto	l1072
  1162  0D31                     l1068:
  1163                           
  1164                           ;Neopixel.c: 17:         neopixel_colour_send(green[ledNum]);
  1165  0D31  0878               	movf	neopixel_fill_a@ledNum,w
  1166  0D32  0774               	addwf	neopixel_fill_a@green,w
  1167  0D33  00F6               	movwf	??_neopixel_fill_a
  1168  0D34  0876               	movf	??_neopixel_fill_a,w
  1169  0D35  0086               	movwf	6
  1170  0D36  0187               	clrf	7
  1171  0D37  0801               	movf	1,w
  1172  0D38  318C  24D7  318D   	fcall	_neopixel_colour_send
  1173                           
  1174                           ;Neopixel.c: 18:         neopixel_colour_send(red[ledNum]);
  1175  0D3B  0878               	movf	neopixel_fill_a@ledNum,w
  1176  0D3C  0773               	addwf	neopixel_fill_a@red,w
  1177  0D3D  00F6               	movwf	??_neopixel_fill_a
  1178  0D3E  0876               	movf	??_neopixel_fill_a,w
  1179  0D3F  0086               	movwf	6
  1180  0D40  0187               	clrf	7
  1181  0D41  0801               	movf	1,w
  1182  0D42  318C  24D7  318D   	fcall	_neopixel_colour_send
  1183                           
  1184                           ;Neopixel.c: 19:         neopixel_colour_send(blue[ledNum]);
  1185  0D45  0878               	movf	neopixel_fill_a@ledNum,w
  1186  0D46  0775               	addwf	neopixel_fill_a@blue,w
  1187  0D47  00F6               	movwf	??_neopixel_fill_a
  1188  0D48  0876               	movf	??_neopixel_fill_a,w
  1189  0D49  0086               	movwf	6
  1190  0D4A  3001               	movlw	1	; select bank2/3
  1191  0D4B  0087               	movwf	7
  1192  0D4C  0801               	movf	1,w
  1193  0D4D  318C  24D7  318D   	fcall	_neopixel_colour_send
  1194  0D50                     l1070:
  1195                           
  1196                           ;Neopixel.c: 20:     }
  1197  0D50  3001               	movlw	1
  1198  0D51  00F6               	movwf	??_neopixel_fill_a
  1199  0D52  0876               	movf	??_neopixel_fill_a,w
  1200  0D53  07F8               	addwf	neopixel_fill_a@ledNum,f
  1201  0D54                     l1072:
  1202  0D54  0878               	movf	neopixel_fill_a@ledNum,w
  1203  0D55  0677               	xorwf	neopixel_fill_a@leds,w
  1204  0D56  1D03               	skipz
  1205  0D57  2D59               	goto	u571
  1206  0D58  2D5A               	goto	u570
  1207  0D59                     u571:
  1208  0D59  2D31               	goto	l1068
  1209  0D5A                     u570:
  1210  0D5A                     l147:
  1211  0D5A  0008               	return
  1212  0D5B                     __end_of_neopixel_fill_a:
  1213                           
  1214                           	psect	text2
  1215  0CD7                     __ptext2:	
  1216 ;; *************** function _neopixel_colour_send *****************
  1217 ;; Defined at:
  1218 ;;		line 31 in file "Neopixel.c"
  1219 ;; Parameters:    Size  Location     Type
  1220 ;;  colour          1    wreg     unsigned char 
  1221 ;; Auto vars:     Size  Location     Type
  1222 ;;  colour          1    1[COMMON] unsigned char 
  1223 ;;  bits            1    2[COMMON] unsigned char 
  1224 ;; Return value:  Size  Location     Type
  1225 ;;                  1    wreg      void 
  1226 ;; Registers used:
  1227 ;;		wreg, status,2, status,0
  1228 ;; Tracked objects:
  1229 ;;		On entry : 0/0
  1230 ;;		On exit  : 0/0
  1231 ;;		Unchanged: 0/0
  1232 ;; Data sizes:     COMMON   BANK0   BANK1   BANK2   BANK3   BANK4   BANK5   BANK6   BANK7   BANK8   BANK9  BANK10  BANK1
      +1  BANK12
  1233 ;;      Params:         0       0       0       0       0       0       0       0       0       0       0       0       
      +0       0
  1234 ;;      Locals:         2       0       0       0       0       0       0       0       0       0       0       0       
      +0       0
  1235 ;;      Temps:          1       0       0       0       0       0       0       0       0       0       0       0       
      +0       0
  1236 ;;      Totals:         3       0       0       0       0       0       0       0       0       0       0       0       
      +0       0
  1237 ;;Total ram usage:        3 bytes
  1238 ;; Hardware stack levels used: 1
  1239 ;; This function calls:
  1240 ;;		Nothing
  1241 ;; This function is called by:
  1242 ;;		_neopixel_fill_a
  1243 ;;		_neopixel_fill
  1244 ;; This function uses a non-reentrant model
  1245 ;;
  1246                           
  1247                           
  1248                           ;psect for function _neopixel_colour_send
  1249  0CD7                     _neopixel_colour_send:
  1250                           
  1251                           ;incstack = 0
  1252                           ; Regs used in _neopixel_colour_send: [wreg+status,2+status,0]
  1253                           ;neopixel_colour_send@colour stored from wreg
  1254  0CD7  00F1               	movwf	neopixel_colour_send@colour
  1255  0CD8                     l960:
  1256                           
  1257                           ;Neopixel.c: 32:     for(unsigned char bits = 8; bits != 0; bits --) {
  1258  0CD8  3008               	movlw	8
  1259  0CD9  00F0               	movwf	??_neopixel_colour_send
  1260  0CDA  0870               	movf	??_neopixel_colour_send,w
  1261  0CDB  00F2               	movwf	neopixel_colour_send@bits
  1262  0CDC                     l155:
  1263                           
  1264                           ;Neopixel.c: 33:         LATCbits.LATC0 = 1;
  1265  0CDC  0022               	movlb	2	; select bank2
  1266  0CDD  140E               	bsf	14,0	;volatile
  1267                           
  1268                           ;Neopixel.c: 34:         if((colour & 0b10000000) == 0) {
  1269  0CDE  1BF1               	btfsc	neopixel_colour_send@colour,7
  1270  0CDF  2CE1               	goto	u381
  1271  0CE0  2CE2               	goto	u380
  1272  0CE1                     u381:
  1273  0CE1  2CE3               	goto	l157
  1274  0CE2                     u380:
  1275  0CE2                     l966:
  1276                           
  1277                           ;Neopixel.c: 35:             LATCbits.LATC0 = 0;
  1278  0CE2  100E               	bcf	14,0	;volatile
  1279  0CE3                     l157:	
  1280                           ;Neopixel.c: 36:         }
  1281                           
  1282                           
  1283                           ;Neopixel.c: 37:         __nop();
  1284  0CE3  0000               	nop
  1285                           
  1286                           ;Neopixel.c: 38:         LATCbits.LATC0 = 0;
  1287  0CE4  0022               	movlb	2	; select bank2
  1288  0CE5  100E               	bcf	14,0	;volatile
  1289  0CE6                     l968:
  1290                           
  1291                           ;Neopixel.c: 39:         colour <<= 1;
  1292  0CE6  1003               	clrc
  1293  0CE7  0DF1               	rlf	neopixel_colour_send@colour,f
  1294  0CE8                     l970:
  1295                           
  1296                           ;Neopixel.c: 40:     }
  1297  0CE8  3001               	movlw	1
  1298  0CE9  02F2               	subwf	neopixel_colour_send@bits,f
  1299  0CEA                     l972:
  1300  0CEA  0872               	movf	neopixel_colour_send@bits,w
  1301  0CEB  1D03               	btfss	3,2
  1302  0CEC  2CEE               	goto	u391
  1303  0CED  2CEF               	goto	u390
  1304  0CEE                     u391:
  1305  0CEE  2CDC               	goto	l155
  1306  0CEF                     u390:
  1307  0CEF                     l158:
  1308  0CEF  0008               	return
  1309  0CF0                     __end_of_neopixel_colour_send:
  1310                           
  1311                           	psect	text3
  1312  0E64                     __ptext3:	
  1313 ;; *************** function _hsvtorgb *****************
  1314 ;; Defined at:
  1315 ;;		line 87 in file "main.c"
  1316 ;; Parameters:    Size  Location     Type
  1317 ;;  r               1    wreg     PTR unsigned char 
  1318 ;;		 -> reds(45), 
  1319 ;;  g               1    9[COMMON] PTR unsigned char 
  1320 ;;		 -> greens(45), 
  1321 ;;  b               1   10[COMMON] PTR unsigned char 
  1322 ;;		 -> blues(45), 
  1323 ;;  h               1   11[COMMON] unsigned char 
  1324 ;;  s               1   12[COMMON] unsigned char 
  1325 ;;  v               1   13[COMMON] unsigned char 
  1326 ;; Auto vars:     Size  Location     Type
  1327 ;;  r               1   16[BANK0 ] PTR unsigned char 
  1328 ;;		 -> reds(45), 
  1329 ;;  p               1   15[BANK0 ] unsigned char 
  1330 ;;  t               1   14[BANK0 ] unsigned char 
  1331 ;;  q               1   13[BANK0 ] unsigned char 
  1332 ;;  fpart           1   12[BANK0 ] unsigned char 
  1333 ;;  region          1   11[BANK0 ] unsigned char 
  1334 ;; Return value:  Size  Location     Type
  1335 ;;                  1    wreg      void 
  1336 ;; Registers used:
  1337 ;;		wreg, fsr0l, fsr0h, fsr1l, fsr1h, status,2, status,0, pclath, cstack
  1338 ;; Tracked objects:
  1339 ;;		On entry : 0/0
  1340 ;;		On exit  : 0/0
  1341 ;;		Unchanged: 0/0
  1342 ;; Data sizes:     COMMON   BANK0   BANK1   BANK2   BANK3   BANK4   BANK5   BANK6   BANK7   BANK8   BANK9  BANK10  BANK1
      +1  BANK12
  1343 ;;      Params:         5       0       0       0       0       0       0       0       0       0       0       0       
      +0       0
  1344 ;;      Locals:         0       9       0       0       0       0       0       0       0       0       0       0       
      +0       0
  1345 ;;      Temps:          0       8       0       0       0       0       0       0       0       0       0       0       
      +0       0
  1346 ;;      Totals:         5      17       0       0       0       0       0       0       0       0       0       0       
      +0       0
  1347 ;;Total ram usage:       22 bytes
  1348 ;; Hardware stack levels used: 1
  1349 ;; Hardware stack levels required when called: 1
  1350 ;; This function calls:
  1351 ;;		___awdiv
  1352 ;;		___bmul
  1353 ;;		___wmul
  1354 ;; This function is called by:
  1355 ;;		_main
  1356 ;; This function uses a non-reentrant model
  1357 ;;
  1358                           
  1359                           
  1360                           ;psect for function _hsvtorgb
  1361  0E64                     _hsvtorgb:
  1362                           
  1363                           ;incstack = 0
  1364                           ; Regs used in _hsvtorgb: [wreg-fsr1h+status,2+status,0+pclath+cstack]
  1365                           ;hsvtorgb@r stored from wreg
  1366  0E64  0020               	movlb	0	; select bank0
  1367  0E65  00E0               	movwf	hsvtorgb@r
  1368  0E66                     l1074:
  1369                           
  1370                           ;main.c: 88:     unsigned char region, fpart, p, q, t;;main.c: 90:     if(s == 0) {
  1371  0E66  087C               	movf	hsvtorgb@s,w
  1372  0E67  1D03               	btfss	3,2
  1373  0E68  2E6A               	goto	u581
  1374  0E69  2E6B               	goto	u580
  1375  0E6A                     u581:
  1376  0E6A  2E7C               	goto	l1080
  1377  0E6B                     u580:
  1378  0E6B                     l1076:
  1379                           
  1380                           ;main.c: 92:         *r = *g = *b = v;
  1381  0E6B  0879               	movf	hsvtorgb@g,w
  1382  0E6C  0086               	movwf	6
  1383  0E6D  0187               	clrf	7
  1384  0E6E  087A               	movf	hsvtorgb@b,w
  1385  0E6F  0084               	movwf	4
  1386  0E70  3001               	movlw	1	; select bank2/3
  1387  0E71  0085               	movwf	5
  1388  0E72  087D               	movf	hsvtorgb@v,w
  1389  0E73  3F80               	movwi [0]fsr0
  1390  0E74  3FC0               	movwi [0]fsr1
  1391  0E75  00D0               	movwf	??_hsvtorgb
  1392  0E76  0860               	movf	hsvtorgb@r,w
  1393  0E77  0086               	movwf	6
  1394  0E78  0187               	clrf	7
  1395  0E79  0850               	movf	??_hsvtorgb,w
  1396  0E7A  0081               	movwf	1
  1397  0E7B  2FD4               	goto	l127
  1398  0E7C                     l1080:
  1399                           
  1400                           ;main.c: 97:     region = h / 43;
  1401  0E7C  302B               	movlw	43
  1402  0E7D  00F0               	movwf	___awdiv@divisor
  1403  0E7E  3000               	movlw	0
  1404  0E7F  00F1               	movwf	___awdiv@divisor+1
  1405  0E80  087B               	movf	hsvtorgb@h,w
  1406  0E81  00D0               	movwf	??_hsvtorgb
  1407  0E82  01D1               	clrf	??_hsvtorgb+1
  1408  0E83  0850               	movf	??_hsvtorgb,w
  1409  0E84  00F2               	movwf	___awdiv@dividend
  1410  0E85  0851               	movf	??_hsvtorgb+1,w
  1411  0E86  00F3               	movwf	___awdiv@dividend+1
  1412  0E87  318D  255B  318E   	fcall	___awdiv
  1413  0E8A  0870               	movf	?___awdiv,w
  1414  0E8B  0020               	movlb	0	; select bank0
  1415  0E8C  00D2               	movwf	??_hsvtorgb+2
  1416  0E8D  0852               	movf	??_hsvtorgb+2,w
  1417  0E8E  00DB               	movwf	hsvtorgb@region
  1418                           
  1419                           ;main.c: 99:     fpart = (h - (region * 43)) * 6;
  1420  0E8F  30D5               	movlw	213
  1421  0E90  00D0               	movwf	??_hsvtorgb
  1422  0E91  0850               	movf	??_hsvtorgb,w
  1423  0E92  00F0               	movwf	___bmul@multiplicand
  1424  0E93  085B               	movf	hsvtorgb@region,w
  1425  0E94  318C  24C2  318E   	fcall	___bmul
  1426  0E97  077B               	addwf	hsvtorgb@h,w
  1427  0E98  0020               	movlb	0	; select bank0
  1428  0E99  00D1               	movwf	??_hsvtorgb+1
  1429  0E9A  0851               	movf	??_hsvtorgb+1,w
  1430  0E9B  00D8               	movwf	_hsvtorgb$685
  1431                           
  1432                           ;main.c: 99:     fpart = (h - (region * 43)) * 6;
  1433  0E9C  3006               	movlw	6
  1434  0E9D  00D0               	movwf	??_hsvtorgb
  1435  0E9E  0850               	movf	??_hsvtorgb,w
  1436  0E9F  00F0               	movwf	___bmul@multiplicand
  1437  0EA0  0858               	movf	_hsvtorgb$685,w
  1438  0EA1  318C  24C2  318E   	fcall	___bmul
  1439  0EA4  0020               	movlb	0	; select bank0
  1440  0EA5  00D1               	movwf	??_hsvtorgb+1
  1441  0EA6  0851               	movf	??_hsvtorgb+1,w
  1442  0EA7  00DC               	movwf	hsvtorgb@fpart
  1443                           
  1444                           ;main.c: 102:     p = (v * (255 - s)) >> 8;
  1445  0EA8  087D               	movf	hsvtorgb@v,w
  1446  0EA9  00D0               	movwf	??_hsvtorgb
  1447  0EAA  01D1               	clrf	??_hsvtorgb+1
  1448  0EAB  0850               	movf	??_hsvtorgb,w
  1449  0EAC  00F0               	movwf	___wmul@multiplier
  1450  0EAD  0851               	movf	??_hsvtorgb+1,w
  1451  0EAE  00F1               	movwf	___wmul@multiplier+1
  1452  0EAF  097C               	comf	hsvtorgb@s,w
  1453  0EB0  00D2               	movwf	??_hsvtorgb+2
  1454  0EB1  01D3               	clrf	??_hsvtorgb+3
  1455  0EB2  0852               	movf	??_hsvtorgb+2,w
  1456  0EB3  00F2               	movwf	___wmul@multiplicand
  1457  0EB4  0853               	movf	??_hsvtorgb+3,w
  1458  0EB5  00F3               	movwf	___wmul@multiplicand+1
  1459  0EB6  318D  250F  318E   	fcall	___wmul
  1460  0EB9  0871               	movf	?___wmul+1,w
  1461  0EBA  0020               	movlb	0	; select bank0
  1462  0EBB  00D4               	movwf	??_hsvtorgb+4
  1463  0EBC  0854               	movf	??_hsvtorgb+4,w
  1464  0EBD  00DF               	movwf	hsvtorgb@p
  1465                           
  1466                           ;main.c: 103:     q = (v * (255 - ((s * fpart) >> 8))) >> 8;
  1467  0EBE  087C               	movf	hsvtorgb@s,w
  1468  0EBF  00D0               	movwf	??_hsvtorgb
  1469  0EC0  01D1               	clrf	??_hsvtorgb+1
  1470  0EC1  0850               	movf	??_hsvtorgb,w
  1471  0EC2  00F0               	movwf	___wmul@multiplier
  1472  0EC3  0851               	movf	??_hsvtorgb+1,w
  1473  0EC4  00F1               	movwf	___wmul@multiplier+1
  1474  0EC5  085C               	movf	hsvtorgb@fpart,w
  1475  0EC6  00D2               	movwf	??_hsvtorgb+2
  1476  0EC7  01D3               	clrf	??_hsvtorgb+3
  1477  0EC8  0852               	movf	??_hsvtorgb+2,w
  1478  0EC9  00F2               	movwf	___wmul@multiplicand
  1479  0ECA  0853               	movf	??_hsvtorgb+3,w
  1480  0ECB  00F3               	movwf	___wmul@multiplicand+1
  1481  0ECC  318D  250F  318E   	fcall	___wmul
  1482  0ECF  0870               	movf	?___wmul,w
  1483  0ED0  0020               	movlb	0	; select bank0
  1484  0ED1  00D4               	movwf	??_hsvtorgb+4
  1485  0ED2  0871               	movf	?___wmul+1,w
  1486  0ED3  00D5               	movwf	??_hsvtorgb+5
  1487  0ED4  3008               	movlw	8
  1488  0ED5  00D6               	movwf	??_hsvtorgb+6
  1489  0ED6                     u595:
  1490  0ED6  0D55               	rlf	??_hsvtorgb+5,w
  1491  0ED7  0CD5               	rrf	??_hsvtorgb+5,f
  1492  0ED8  0CD4               	rrf	??_hsvtorgb+4,f
  1493  0ED9  0BD6               	decfsz	??_hsvtorgb+6,f
  1494  0EDA  2ED6               	goto	u595
  1495  0EDB  30FF               	movlw	255
  1496  0EDC  00D7               	movwf	??_hsvtorgb+7
  1497  0EDD  0854               	movf	??_hsvtorgb+4,w
  1498  0EDE  0257               	subwf	??_hsvtorgb+7,w
  1499  0EDF  00D9               	movwf	_hsvtorgb$686
  1500  0EE0  0955               	comf	??_hsvtorgb+5,w
  1501  0EE1  1803               	skipnc
  1502  0EE2  0A89               	incf	9,f
  1503  0EE3  00DA               	movwf	_hsvtorgb$686+1
  1504                           
  1505                           ;main.c: 103:     q = (v * (255 - ((s * fpart) >> 8))) >> 8;
  1506  0EE4  087D               	movf	hsvtorgb@v,w
  1507  0EE5  00D0               	movwf	??_hsvtorgb
  1508  0EE6  01D1               	clrf	??_hsvtorgb+1
  1509  0EE7  0850               	movf	??_hsvtorgb,w
  1510  0EE8  00F0               	movwf	___wmul@multiplier
  1511  0EE9  0851               	movf	??_hsvtorgb+1,w
  1512  0EEA  00F1               	movwf	___wmul@multiplier+1
  1513  0EEB  085A               	movf	_hsvtorgb$686+1,w
  1514  0EEC  00F3               	movwf	___wmul@multiplicand+1
  1515  0EED  0859               	movf	_hsvtorgb$686,w
  1516  0EEE  00F2               	movwf	___wmul@multiplicand
  1517  0EEF  318D  250F  318E   	fcall	___wmul
  1518  0EF2  0871               	movf	?___wmul+1,w
  1519  0EF3  0020               	movlb	0	; select bank0
  1520  0EF4  00D2               	movwf	??_hsvtorgb+2
  1521  0EF5  0852               	movf	??_hsvtorgb+2,w
  1522  0EF6  00DD               	movwf	hsvtorgb@q
  1523                           
  1524                           ;main.c: 104:     t = (v * (255 - ((s * (255 - fpart)) >> 8))) >> 8;
  1525  0EF7  087C               	movf	hsvtorgb@s,w
  1526  0EF8  00D0               	movwf	??_hsvtorgb
  1527  0EF9  01D1               	clrf	??_hsvtorgb+1
  1528  0EFA  0850               	movf	??_hsvtorgb,w
  1529  0EFB  00F0               	movwf	___wmul@multiplier
  1530  0EFC  0851               	movf	??_hsvtorgb+1,w
  1531  0EFD  00F1               	movwf	___wmul@multiplier+1
  1532  0EFE  095C               	comf	hsvtorgb@fpart,w
  1533  0EFF  00D2               	movwf	??_hsvtorgb+2
  1534  0F00  01D3               	clrf	??_hsvtorgb+3
  1535  0F01  0852               	movf	??_hsvtorgb+2,w
  1536  0F02  00F2               	movwf	___wmul@multiplicand
  1537  0F03  0853               	movf	??_hsvtorgb+3,w
  1538  0F04  00F3               	movwf	___wmul@multiplicand+1
  1539  0F05  318D  250F  318E   	fcall	___wmul
  1540  0F08  0870               	movf	?___wmul,w
  1541  0F09  0020               	movlb	0	; select bank0
  1542  0F0A  00D4               	movwf	??_hsvtorgb+4
  1543  0F0B  0871               	movf	?___wmul+1,w
  1544  0F0C  00D5               	movwf	??_hsvtorgb+5
  1545  0F0D  3008               	movlw	8
  1546  0F0E  00D6               	movwf	??_hsvtorgb+6
  1547  0F0F                     u605:
  1548  0F0F  0D55               	rlf	??_hsvtorgb+5,w
  1549  0F10  0CD5               	rrf	??_hsvtorgb+5,f
  1550  0F11  0CD4               	rrf	??_hsvtorgb+4,f
  1551  0F12  0BD6               	decfsz	??_hsvtorgb+6,f
  1552  0F13  2F0F               	goto	u605
  1553  0F14  30FF               	movlw	255
  1554  0F15  00D7               	movwf	??_hsvtorgb+7
  1555  0F16  0854               	movf	??_hsvtorgb+4,w
  1556  0F17  0257               	subwf	??_hsvtorgb+7,w
  1557  0F18  00D9               	movwf	_hsvtorgb$686
  1558  0F19  0955               	comf	??_hsvtorgb+5,w
  1559  0F1A  1803               	skipnc
  1560  0F1B  0A89               	incf	9,f
  1561  0F1C  00DA               	movwf	_hsvtorgb$686+1
  1562                           
  1563                           ;main.c: 104:     t = (v * (255 - ((s * (255 - fpart)) >> 8))) >> 8;
  1564  0F1D  087D               	movf	hsvtorgb@v,w
  1565  0F1E  00D0               	movwf	??_hsvtorgb
  1566  0F1F  01D1               	clrf	??_hsvtorgb+1
  1567  0F20  0850               	movf	??_hsvtorgb,w
  1568  0F21  00F0               	movwf	___wmul@multiplier
  1569  0F22  0851               	movf	??_hsvtorgb+1,w
  1570  0F23  00F1               	movwf	___wmul@multiplier+1
  1571  0F24  085A               	movf	_hsvtorgb$686+1,w
  1572  0F25  00F3               	movwf	___wmul@multiplicand+1
  1573  0F26  0859               	movf	_hsvtorgb$686,w
  1574  0F27  00F2               	movwf	___wmul@multiplicand
  1575  0F28  318D  250F  318E   	fcall	___wmul
  1576  0F2B  0871               	movf	?___wmul+1,w
  1577  0F2C  0020               	movlb	0	; select bank0
  1578  0F2D  00D2               	movwf	??_hsvtorgb+2
  1579  0F2E  0852               	movf	??_hsvtorgb+2,w
  1580  0F2F  00DE               	movwf	hsvtorgb@t
  1581                           
  1582                           ;main.c: 107:     switch(region) {
  1583  0F30  2FBB               	goto	l1096
  1584  0F31                     l1082:
  1585                           
  1586                           ;main.c: 109:             *r = v; *g = t; *b = p; break;
  1587  0F31  087D               	movf	hsvtorgb@v,w
  1588  0F32  00D0               	movwf	??_hsvtorgb
  1589  0F33  0860               	movf	hsvtorgb@r,w
  1590  0F34  0086               	movwf	6
  1591  0F35  0187               	clrf	7
  1592  0F36  0850               	movf	??_hsvtorgb,w
  1593  0F37  0081               	movwf	1
  1594  0F38  085E               	movf	hsvtorgb@t,w
  1595  0F39  00D0               	movwf	??_hsvtorgb
  1596  0F3A  0879               	movf	hsvtorgb@g,w
  1597  0F3B  0086               	movwf	6
  1598  0F3C  0187               	clrf	7
  1599  0F3D  0850               	movf	??_hsvtorgb,w
  1600  0F3E  0081               	movwf	1
  1601  0F3F  085F               	movf	hsvtorgb@p,w
  1602  0F40  00D0               	movwf	??_hsvtorgb
  1603  0F41  087A               	movf	hsvtorgb@b,w
  1604  0F42  0086               	movwf	6
  1605  0F43  3001               	movlw	1	; select bank2/3
  1606  0F44  0087               	movwf	7
  1607  0F45  0850               	movf	??_hsvtorgb,w
  1608  0F46  0081               	movwf	1
  1609  0F47  2FD4               	goto	l127
  1610  0F48                     l1084:
  1611                           
  1612                           ;main.c: 111:             *r = q; *g = v; *b = p; break;
  1613  0F48  085D               	movf	hsvtorgb@q,w
  1614  0F49  00D0               	movwf	??_hsvtorgb
  1615  0F4A  0860               	movf	hsvtorgb@r,w
  1616  0F4B  0086               	movwf	6
  1617  0F4C  0187               	clrf	7
  1618  0F4D  0850               	movf	??_hsvtorgb,w
  1619  0F4E  0081               	movwf	1
  1620  0F4F  087D               	movf	hsvtorgb@v,w
  1621  0F50  00D0               	movwf	??_hsvtorgb
  1622  0F51  0879               	movf	hsvtorgb@g,w
  1623  0F52  0086               	movwf	6
  1624  0F53  0187               	clrf	7
  1625  0F54  0850               	movf	??_hsvtorgb,w
  1626  0F55  0081               	movwf	1
  1627  0F56  085F               	movf	hsvtorgb@p,w
  1628  0F57  00D0               	movwf	??_hsvtorgb
  1629  0F58  087A               	movf	hsvtorgb@b,w
  1630  0F59  0086               	movwf	6
  1631  0F5A  3001               	movlw	1	; select bank2/3
  1632  0F5B  0087               	movwf	7
  1633  0F5C  0850               	movf	??_hsvtorgb,w
  1634  0F5D  0081               	movwf	1
  1635  0F5E  2FD4               	goto	l127
  1636  0F5F                     l1086:
  1637                           
  1638                           ;main.c: 113:             *r = p; *g = v; *b = t; break;
  1639  0F5F  085F               	movf	hsvtorgb@p,w
  1640  0F60  00D0               	movwf	??_hsvtorgb
  1641  0F61  0860               	movf	hsvtorgb@r,w
  1642  0F62  0086               	movwf	6
  1643  0F63  0187               	clrf	7
  1644  0F64  0850               	movf	??_hsvtorgb,w
  1645  0F65  0081               	movwf	1
  1646  0F66  087D               	movf	hsvtorgb@v,w
  1647  0F67  00D0               	movwf	??_hsvtorgb
  1648  0F68  0879               	movf	hsvtorgb@g,w
  1649  0F69  0086               	movwf	6
  1650  0F6A  0187               	clrf	7
  1651  0F6B  0850               	movf	??_hsvtorgb,w
  1652  0F6C  0081               	movwf	1
  1653  0F6D  085E               	movf	hsvtorgb@t,w
  1654  0F6E  00D0               	movwf	??_hsvtorgb
  1655  0F6F  087A               	movf	hsvtorgb@b,w
  1656  0F70  0086               	movwf	6
  1657  0F71  3001               	movlw	1	; select bank2/3
  1658  0F72  0087               	movwf	7
  1659  0F73  0850               	movf	??_hsvtorgb,w
  1660  0F74  0081               	movwf	1
  1661  0F75  2FD4               	goto	l127
  1662  0F76                     l1088:
  1663                           
  1664                           ;main.c: 115:             *r = p; *g = q; *b = v; break;
  1665  0F76  085F               	movf	hsvtorgb@p,w
  1666  0F77  00D0               	movwf	??_hsvtorgb
  1667  0F78  0860               	movf	hsvtorgb@r,w
  1668  0F79  0086               	movwf	6
  1669  0F7A  0187               	clrf	7
  1670  0F7B  0850               	movf	??_hsvtorgb,w
  1671  0F7C  0081               	movwf	1
  1672  0F7D  085D               	movf	hsvtorgb@q,w
  1673  0F7E  00D0               	movwf	??_hsvtorgb
  1674  0F7F  0879               	movf	hsvtorgb@g,w
  1675  0F80  0086               	movwf	6
  1676  0F81  0187               	clrf	7
  1677  0F82  0850               	movf	??_hsvtorgb,w
  1678  0F83  0081               	movwf	1
  1679  0F84  087D               	movf	hsvtorgb@v,w
  1680  0F85  00D0               	movwf	??_hsvtorgb
  1681  0F86  087A               	movf	hsvtorgb@b,w
  1682  0F87  0086               	movwf	6
  1683  0F88  3001               	movlw	1	; select bank2/3
  1684  0F89  0087               	movwf	7
  1685  0F8A  0850               	movf	??_hsvtorgb,w
  1686  0F8B  0081               	movwf	1
  1687  0F8C  2FD4               	goto	l127
  1688  0F8D                     l1090:
  1689                           
  1690                           ;main.c: 117:             *r = t; *g = p; *b = v; break;
  1691  0F8D  085E               	movf	hsvtorgb@t,w
  1692  0F8E  00D0               	movwf	??_hsvtorgb
  1693  0F8F  0860               	movf	hsvtorgb@r,w
  1694  0F90  0086               	movwf	6
  1695  0F91  0187               	clrf	7
  1696  0F92  0850               	movf	??_hsvtorgb,w
  1697  0F93  0081               	movwf	1
  1698  0F94  085F               	movf	hsvtorgb@p,w
  1699  0F95  00D0               	movwf	??_hsvtorgb
  1700  0F96  0879               	movf	hsvtorgb@g,w
  1701  0F97  0086               	movwf	6
  1702  0F98  0187               	clrf	7
  1703  0F99  0850               	movf	??_hsvtorgb,w
  1704  0F9A  0081               	movwf	1
  1705  0F9B  087D               	movf	hsvtorgb@v,w
  1706  0F9C  00D0               	movwf	??_hsvtorgb
  1707  0F9D  087A               	movf	hsvtorgb@b,w
  1708  0F9E  0086               	movwf	6
  1709  0F9F  3001               	movlw	1	; select bank2/3
  1710  0FA0  0087               	movwf	7
  1711  0FA1  0850               	movf	??_hsvtorgb,w
  1712  0FA2  0081               	movwf	1
  1713  0FA3  2FD4               	goto	l127
  1714  0FA4                     l1092:
  1715                           
  1716                           ;main.c: 119:             *r = v; *g = p; *b = q; break;
  1717  0FA4  087D               	movf	hsvtorgb@v,w
  1718  0FA5  00D0               	movwf	??_hsvtorgb
  1719  0FA6  0860               	movf	hsvtorgb@r,w
  1720  0FA7  0086               	movwf	6
  1721  0FA8  0187               	clrf	7
  1722  0FA9  0850               	movf	??_hsvtorgb,w
  1723  0FAA  0081               	movwf	1
  1724  0FAB  085F               	movf	hsvtorgb@p,w
  1725  0FAC  00D0               	movwf	??_hsvtorgb
  1726  0FAD  0879               	movf	hsvtorgb@g,w
  1727  0FAE  0086               	movwf	6
  1728  0FAF  0187               	clrf	7
  1729  0FB0  0850               	movf	??_hsvtorgb,w
  1730  0FB1  0081               	movwf	1
  1731  0FB2  085D               	movf	hsvtorgb@q,w
  1732  0FB3  00D0               	movwf	??_hsvtorgb
  1733  0FB4  087A               	movf	hsvtorgb@b,w
  1734  0FB5  0086               	movwf	6
  1735  0FB6  3001               	movlw	1	; select bank2/3
  1736  0FB7  0087               	movwf	7
  1737  0FB8  0850               	movf	??_hsvtorgb,w
  1738  0FB9  0081               	movwf	1
  1739  0FBA  2FD4               	goto	l127
  1740  0FBB                     l1096:
  1741  0FBB  085B               	movf	hsvtorgb@region,w
  1742  0FBC  00D0               	movwf	??_hsvtorgb
  1743  0FBD  01D1               	clrf	??_hsvtorgb+1
  1744                           
  1745                           ; Switch on 2 bytes has been partitioned into a top level switch of size 1, and 1 sub-sw
      +                          itches
  1746                           ; Switch size 1, requested type "simple"
  1747                           ; Number of cases is 1, Range of values is 0 to 0
  1748                           ; switch strategies available:
  1749                           ; Name         Instructions Cycles
  1750                           ; simple_byte            4     3 (average)
  1751                           ; direct_byte            8     6 (fixed)
  1752                           ; jumptable            260     6 (fixed)
  1753                           ;	Chosen strategy is simple_byte
  1754  0FBE  0851               	movf	??_hsvtorgb+1,w
  1755  0FBF  3A00               	xorlw	0	; case 0
  1756  0FC0  1903               	skipnz
  1757  0FC1  2FC3               	goto	l1198
  1758  0FC2  2FA4               	goto	l1092
  1759  0FC3                     l1198:
  1760                           
  1761                           ; Switch size 1, requested type "simple"
  1762                           ; Number of cases is 5, Range of values is 0 to 4
  1763                           ; switch strategies available:
  1764                           ; Name         Instructions Cycles
  1765                           ; direct_byte           16     6 (fixed)
  1766                           ; simple_byte           16     9 (average)
  1767                           ; jumptable            260     6 (fixed)
  1768                           ;	Chosen strategy is simple_byte
  1769  0FC3  0850               	movf	??_hsvtorgb,w
  1770  0FC4  3A00               	xorlw	0	; case 0
  1771  0FC5  1903               	skipnz
  1772  0FC6  2F31               	goto	l1082
  1773  0FC7  3A01               	xorlw	1	; case 1
  1774  0FC8  1903               	skipnz
  1775  0FC9  2F48               	goto	l1084
  1776  0FCA  3A03               	xorlw	3	; case 2
  1777  0FCB  1903               	skipnz
  1778  0FCC  2F5F               	goto	l1086
  1779  0FCD  3A01               	xorlw	1	; case 3
  1780  0FCE  1903               	skipnz
  1781  0FCF  2F76               	goto	l1088
  1782  0FD0  3A07               	xorlw	7	; case 4
  1783  0FD1  1903               	skipnz
  1784  0FD2  2F8D               	goto	l1090
  1785  0FD3  2FA4               	goto	l1092
  1786  0FD4                     l127:
  1787  0FD4  0008               	return
  1788  0FD5                     __end_of_hsvtorgb:
  1789                           
  1790                           	psect	text4
  1791  0D0F                     __ptext4:	
  1792 ;; *************** function ___wmul *****************
  1793 ;; Defined at:
  1794 ;;		line 15 in file "C:\Program Files\Microchip\xc8\v2.32\pic\sources\c99\common\Umul16.c"
  1795 ;; Parameters:    Size  Location     Type
  1796 ;;  multiplier      2    0[COMMON] unsigned int 
  1797 ;;  multiplicand    2    2[COMMON] unsigned int 
  1798 ;; Auto vars:     Size  Location     Type
  1799 ;;  product         2    4[COMMON] unsigned int 
  1800 ;; Return value:  Size  Location     Type
  1801 ;;                  2    0[COMMON] unsigned int 
  1802 ;; Registers used:
  1803 ;;		wreg, status,2, status,0
  1804 ;; Tracked objects:
  1805 ;;		On entry : 0/0
  1806 ;;		On exit  : 0/0
  1807 ;;		Unchanged: 0/0
  1808 ;; Data sizes:     COMMON   BANK0   BANK1   BANK2   BANK3   BANK4   BANK5   BANK6   BANK7   BANK8   BANK9  BANK10  BANK1
      +1  BANK12
  1809 ;;      Params:         4       0       0       0       0       0       0       0       0       0       0       0       
      +0       0
  1810 ;;      Locals:         2       0       0       0       0       0       0       0       0       0       0       0       
      +0       0
  1811 ;;      Temps:          0       0       0       0       0       0       0       0       0       0       0       0       
      +0       0
  1812 ;;      Totals:         6       0       0       0       0       0       0       0       0       0       0       0       
      +0       0
  1813 ;;Total ram usage:        6 bytes
  1814 ;; Hardware stack levels used: 1
  1815 ;; This function calls:
  1816 ;;		Nothing
  1817 ;; This function is called by:
  1818 ;;		_hsvtorgb
  1819 ;; This function uses a non-reentrant model
  1820 ;;
  1821                           
  1822                           
  1823                           ;psect for function ___wmul
  1824  0D0F                     ___wmul:
  1825  0D0F                     l974:	
  1826                           ;incstack = 0
  1827                           ; Regs used in ___wmul: [wreg+status,2+status,0]
  1828                           
  1829  0D0F  01F4               	clrf	___wmul@product
  1830  0D10  01F5               	clrf	___wmul@product+1
  1831  0D11                     l976:
  1832  0D11  1C70               	btfss	___wmul@multiplier,0
  1833  0D12  2D14               	goto	u401
  1834  0D13  2D15               	goto	u400
  1835  0D14                     u401:
  1836  0D14  2D19               	goto	l226
  1837  0D15                     u400:
  1838  0D15                     l978:
  1839  0D15  0872               	movf	___wmul@multiplicand,w
  1840  0D16  07F4               	addwf	___wmul@product,f
  1841  0D17  0873               	movf	___wmul@multiplicand+1,w
  1842  0D18  3DF5               	addwfc	___wmul@product+1,f
  1843  0D19                     l226:
  1844  0D19  3001               	movlw	1
  1845  0D1A                     u415:
  1846  0D1A  35F2               	lslf	___wmul@multiplicand,f
  1847  0D1B  0DF3               	rlf	___wmul@multiplicand+1,f
  1848  0D1C  0B89               	decfsz	9,f
  1849  0D1D  2D1A               	goto	u415
  1850  0D1E                     l980:
  1851  0D1E  3001               	movlw	1
  1852  0D1F                     u425:
  1853  0D1F  36F1               	lsrf	___wmul@multiplier+1,f
  1854  0D20  0CF0               	rrf	___wmul@multiplier,f
  1855  0D21  0B89               	decfsz	9,f
  1856  0D22  2D1F               	goto	u425
  1857  0D23                     l982:
  1858  0D23  0870               	movf	___wmul@multiplier,w
  1859  0D24  0471               	iorwf	___wmul@multiplier+1,w
  1860  0D25  1D03               	btfss	3,2
  1861  0D26  2D28               	goto	u431
  1862  0D27  2D29               	goto	u430
  1863  0D28                     u431:
  1864  0D28  2D11               	goto	l976
  1865  0D29                     u430:
  1866  0D29                     l984:
  1867  0D29  0875               	movf	___wmul@product+1,w
  1868  0D2A  00F1               	movwf	?___wmul+1
  1869  0D2B  0874               	movf	___wmul@product,w
  1870  0D2C  00F0               	movwf	?___wmul
  1871  0D2D                     l228:
  1872  0D2D  0008               	return
  1873  0D2E                     __end_of___wmul:
  1874                           
  1875                           	psect	text5
  1876  0CC2                     __ptext5:	
  1877 ;; *************** function ___bmul *****************
  1878 ;; Defined at:
  1879 ;;		line 4 in file "C:\Program Files\Microchip\xc8\v2.32\pic\sources\c99\common\Umul8.c"
  1880 ;; Parameters:    Size  Location     Type
  1881 ;;  multiplier      1    wreg     unsigned char 
  1882 ;;  multiplicand    1    0[COMMON] unsigned char 
  1883 ;; Auto vars:     Size  Location     Type
  1884 ;;  multiplier      1    3[COMMON] unsigned char 
  1885 ;;  product         1    2[COMMON] unsigned char 
  1886 ;; Return value:  Size  Location     Type
  1887 ;;                  1    wreg      unsigned char 
  1888 ;; Registers used:
  1889 ;;		wreg, status,2, status,0
  1890 ;; Tracked objects:
  1891 ;;		On entry : 0/0
  1892 ;;		On exit  : 0/0
  1893 ;;		Unchanged: 0/0
  1894 ;; Data sizes:     COMMON   BANK0   BANK1   BANK2   BANK3   BANK4   BANK5   BANK6   BANK7   BANK8   BANK9  BANK10  BANK1
      +1  BANK12
  1895 ;;      Params:         1       0       0       0       0       0       0       0       0       0       0       0       
      +0       0
  1896 ;;      Locals:         2       0       0       0       0       0       0       0       0       0       0       0       
      +0       0
  1897 ;;      Temps:          1       0       0       0       0       0       0       0       0       0       0       0       
      +0       0
  1898 ;;      Totals:         4       0       0       0       0       0       0       0       0       0       0       0       
      +0       0
  1899 ;;Total ram usage:        4 bytes
  1900 ;; Hardware stack levels used: 1
  1901 ;; This function calls:
  1902 ;;		Nothing
  1903 ;; This function is called by:
  1904 ;;		_hsvtorgb
  1905 ;; This function uses a non-reentrant model
  1906 ;;
  1907                           
  1908                           
  1909                           ;psect for function ___bmul
  1910  0CC2                     ___bmul:
  1911                           
  1912                           ;incstack = 0
  1913                           ; Regs used in ___bmul: [wreg+status,2+status,0]
  1914                           ;___bmul@multiplier stored from wreg
  1915  0CC2  00F3               	movwf	___bmul@multiplier
  1916  0CC3                     l988:
  1917  0CC3  01F2               	clrf	___bmul@product
  1918  0CC4                     l990:
  1919  0CC4  1C73               	btfss	___bmul@multiplier,0
  1920  0CC5  2CC7               	goto	u441
  1921  0CC6  2CC8               	goto	u440
  1922  0CC7                     u441:
  1923  0CC7  2CCC               	goto	l994
  1924  0CC8                     u440:
  1925  0CC8                     l992:
  1926  0CC8  0870               	movf	___bmul@multiplicand,w
  1927  0CC9  00F1               	movwf	??___bmul
  1928  0CCA  0871               	movf	??___bmul,w
  1929  0CCB  07F2               	addwf	___bmul@product,f
  1930  0CCC                     l994:
  1931  0CCC  1003               	clrc
  1932  0CCD  0DF0               	rlf	___bmul@multiplicand,f
  1933  0CCE                     l996:
  1934  0CCE  1003               	clrc
  1935  0CCF  0CF3               	rrf	___bmul@multiplier,f
  1936  0CD0  0873               	movf	___bmul@multiplier,w
  1937  0CD1  1D03               	btfss	3,2
  1938  0CD2  2CD4               	goto	u451
  1939  0CD3  2CD5               	goto	u450
  1940  0CD4                     u451:
  1941  0CD4  2CC4               	goto	l990
  1942  0CD5                     u450:
  1943  0CD5                     l998:
  1944  0CD5  0872               	movf	___bmul@product,w
  1945  0CD6                     l252:
  1946  0CD6  0008               	return
  1947  0CD7                     __end_of___bmul:
  1948                           
  1949                           	psect	text6
  1950  0D5B                     __ptext6:	
  1951 ;; *************** function ___awdiv *****************
  1952 ;; Defined at:
  1953 ;;		line 5 in file "C:\Program Files\Microchip\xc8\v2.32\pic\sources\c99\common\awdiv.c"
  1954 ;; Parameters:    Size  Location     Type
  1955 ;;  divisor         2    0[COMMON] int 
  1956 ;;  dividend        2    2[COMMON] int 
  1957 ;; Auto vars:     Size  Location     Type
  1958 ;;  quotient        2    7[COMMON] int 
  1959 ;;  sign            1    6[COMMON] unsigned char 
  1960 ;;  counter         1    5[COMMON] unsigned char 
  1961 ;; Return value:  Size  Location     Type
  1962 ;;                  2    0[COMMON] int 
  1963 ;; Registers used:
  1964 ;;		wreg, status,2, status,0
  1965 ;; Tracked objects:
  1966 ;;		On entry : 0/0
  1967 ;;		On exit  : 0/0
  1968 ;;		Unchanged: 0/0
  1969 ;; Data sizes:     COMMON   BANK0   BANK1   BANK2   BANK3   BANK4   BANK5   BANK6   BANK7   BANK8   BANK9  BANK10  BANK1
      +1  BANK12
  1970 ;;      Params:         4       0       0       0       0       0       0       0       0       0       0       0       
      +0       0
  1971 ;;      Locals:         4       0       0       0       0       0       0       0       0       0       0       0       
      +0       0
  1972 ;;      Temps:          1       0       0       0       0       0       0       0       0       0       0       0       
      +0       0
  1973 ;;      Totals:         9       0       0       0       0       0       0       0       0       0       0       0       
      +0       0
  1974 ;;Total ram usage:        9 bytes
  1975 ;; Hardware stack levels used: 1
  1976 ;; This function calls:
  1977 ;;		Nothing
  1978 ;; This function is called by:
  1979 ;;		_hsvtorgb
  1980 ;; This function uses a non-reentrant model
  1981 ;;
  1982                           
  1983                           
  1984                           ;psect for function ___awdiv
  1985  0D5B                     ___awdiv:
  1986  0D5B                     l1002:	
  1987                           ;incstack = 0
  1988                           ; Regs used in ___awdiv: [wreg+status,2+status,0]
  1989                           
  1990  0D5B  01F6               	clrf	___awdiv@sign
  1991  0D5C                     l1004:
  1992  0D5C  1FF1               	btfss	___awdiv@divisor+1,7
  1993  0D5D  2D5F               	goto	u461
  1994  0D5E  2D60               	goto	u460
  1995  0D5F                     u461:
  1996  0D5F  2D67               	goto	l1010
  1997  0D60                     u460:
  1998  0D60                     l1006:
  1999  0D60  09F0               	comf	___awdiv@divisor,f
  2000  0D61  09F1               	comf	___awdiv@divisor+1,f
  2001  0D62  0AF0               	incf	___awdiv@divisor,f
  2002  0D63  1903               	skipnz
  2003  0D64  0AF1               	incf	___awdiv@divisor+1,f
  2004  0D65                     l1008:
  2005  0D65  01F6               	clrf	___awdiv@sign
  2006  0D66  0AF6               	incf	___awdiv@sign,f
  2007  0D67                     l1010:
  2008  0D67  1FF3               	btfss	___awdiv@dividend+1,7
  2009  0D68  2D6A               	goto	u471
  2010  0D69  2D6B               	goto	u470
  2011  0D6A                     u471:
  2012  0D6A  2D74               	goto	l1016
  2013  0D6B                     u470:
  2014  0D6B                     l1012:
  2015  0D6B  09F2               	comf	___awdiv@dividend,f
  2016  0D6C  09F3               	comf	___awdiv@dividend+1,f
  2017  0D6D  0AF2               	incf	___awdiv@dividend,f
  2018  0D6E  1903               	skipnz
  2019  0D6F  0AF3               	incf	___awdiv@dividend+1,f
  2020  0D70                     l1014:
  2021  0D70  3001               	movlw	1
  2022  0D71  00F4               	movwf	??___awdiv
  2023  0D72  0874               	movf	??___awdiv,w
  2024  0D73  06F6               	xorwf	___awdiv@sign,f
  2025  0D74                     l1016:
  2026  0D74  01F7               	clrf	___awdiv@quotient
  2027  0D75  01F8               	clrf	___awdiv@quotient+1
  2028  0D76                     l1018:
  2029  0D76  0870               	movf	___awdiv@divisor,w
  2030  0D77  0471               	iorwf	___awdiv@divisor+1,w
  2031  0D78  1903               	btfsc	3,2
  2032  0D79  2D7B               	goto	u481
  2033  0D7A  2D7C               	goto	u480
  2034  0D7B                     u481:
  2035  0D7B  2DAB               	goto	l1038
  2036  0D7C                     u480:
  2037  0D7C                     l1020:
  2038  0D7C  01F5               	clrf	___awdiv@counter
  2039  0D7D  0AF5               	incf	___awdiv@counter,f
  2040  0D7E  2D88               	goto	l1026
  2041  0D7F                     l1022:
  2042  0D7F  3001               	movlw	1
  2043  0D80                     u495:
  2044  0D80  35F0               	lslf	___awdiv@divisor,f
  2045  0D81  0DF1               	rlf	___awdiv@divisor+1,f
  2046  0D82  0B89               	decfsz	9,f
  2047  0D83  2D80               	goto	u495
  2048  0D84                     l1024:
  2049  0D84  3001               	movlw	1
  2050  0D85  00F4               	movwf	??___awdiv
  2051  0D86  0874               	movf	??___awdiv,w
  2052  0D87  07F5               	addwf	___awdiv@counter,f
  2053  0D88                     l1026:
  2054  0D88  1FF1               	btfss	___awdiv@divisor+1,7
  2055  0D89  2D8B               	goto	u501
  2056  0D8A  2D8C               	goto	u500
  2057  0D8B                     u501:
  2058  0D8B  2D7F               	goto	l1022
  2059  0D8C                     u500:
  2060  0D8C                     l1028:
  2061  0D8C  3001               	movlw	1
  2062  0D8D                     u515:
  2063  0D8D  35F7               	lslf	___awdiv@quotient,f
  2064  0D8E  0DF8               	rlf	___awdiv@quotient+1,f
  2065  0D8F  0B89               	decfsz	9,f
  2066  0D90  2D8D               	goto	u515
  2067  0D91  0871               	movf	___awdiv@divisor+1,w
  2068  0D92  0273               	subwf	___awdiv@dividend+1,w
  2069  0D93  1D03               	skipz
  2070  0D94  2D97               	goto	u525
  2071  0D95  0870               	movf	___awdiv@divisor,w
  2072  0D96  0272               	subwf	___awdiv@dividend,w
  2073  0D97                     u525:
  2074  0D97  1C03               	skipc
  2075  0D98  2D9A               	goto	u521
  2076  0D99  2D9B               	goto	u520
  2077  0D9A                     u521:
  2078  0D9A  2DA0               	goto	l1034
  2079  0D9B                     u520:
  2080  0D9B                     l1030:
  2081  0D9B  0870               	movf	___awdiv@divisor,w
  2082  0D9C  02F2               	subwf	___awdiv@dividend,f
  2083  0D9D  0871               	movf	___awdiv@divisor+1,w
  2084  0D9E  3BF3               	subwfb	___awdiv@dividend+1,f
  2085  0D9F                     l1032:
  2086  0D9F  1477               	bsf	___awdiv@quotient,0
  2087  0DA0                     l1034:
  2088  0DA0  3001               	movlw	1
  2089  0DA1                     u535:
  2090  0DA1  36F1               	lsrf	___awdiv@divisor+1,f
  2091  0DA2  0CF0               	rrf	___awdiv@divisor,f
  2092  0DA3  0B89               	decfsz	9,f
  2093  0DA4  2DA1               	goto	u535
  2094  0DA5                     l1036:
  2095  0DA5  3001               	movlw	1
  2096  0DA6  02F5               	subwf	___awdiv@counter,f
  2097  0DA7  1D03               	btfss	3,2
  2098  0DA8  2DAA               	goto	u541
  2099  0DA9  2DAB               	goto	u540
  2100  0DAA                     u541:
  2101  0DAA  2D8C               	goto	l1028
  2102  0DAB                     u540:
  2103  0DAB                     l1038:
  2104  0DAB  0876               	movf	___awdiv@sign,w
  2105  0DAC  1903               	btfsc	3,2
  2106  0DAD  2DAF               	goto	u551
  2107  0DAE  2DB0               	goto	u550
  2108  0DAF                     u551:
  2109  0DAF  2DB5               	goto	l1042
  2110  0DB0                     u550:
  2111  0DB0                     l1040:
  2112  0DB0  09F7               	comf	___awdiv@quotient,f
  2113  0DB1  09F8               	comf	___awdiv@quotient+1,f
  2114  0DB2  0AF7               	incf	___awdiv@quotient,f
  2115  0DB3  1903               	skipnz
  2116  0DB4  0AF8               	incf	___awdiv@quotient+1,f
  2117  0DB5                     l1042:
  2118  0DB5  0878               	movf	___awdiv@quotient+1,w
  2119  0DB6  00F1               	movwf	?___awdiv+1
  2120  0DB7  0877               	movf	___awdiv@quotient,w
  2121  0DB8  00F0               	movwf	?___awdiv
  2122  0DB9                     l379:
  2123  0DB9  0008               	return
  2124  0DBA                     __end_of___awdiv:
  2125                           
  2126                           	psect	text7
  2127  0CF0                     __ptext7:	
  2128 ;; *************** function _UBMP4_config *****************
  2129 ;; Defined at:
  2130 ;;		line 29 in file "UBMP4.c"
  2131 ;; Parameters:    Size  Location     Type
  2132 ;;		None
  2133 ;; Auto vars:     Size  Location     Type
  2134 ;;		None
  2135 ;; Return value:  Size  Location     Type
  2136 ;;                  1    wreg      void 
  2137 ;; Registers used:
  2138 ;;		wreg, status,2
  2139 ;; Tracked objects:
  2140 ;;		On entry : 0/0
  2141 ;;		On exit  : 0/0
  2142 ;;		Unchanged: 0/0
  2143 ;; Data sizes:     COMMON   BANK0   BANK1   BANK2   BANK3   BANK4   BANK5   BANK6   BANK7   BANK8   BANK9  BANK10  BANK1
      +1  BANK12
  2144 ;;      Params:         0       0       0       0       0       0       0       0       0       0       0       0       
      +0       0
  2145 ;;      Locals:         0       0       0       0       0       0       0       0       0       0       0       0       
      +0       0
  2146 ;;      Temps:          0       0       0       0       0       0       0       0       0       0       0       0       
      +0       0
  2147 ;;      Totals:         0       0       0       0       0       0       0       0       0       0       0       0       
      +0       0
  2148 ;;Total ram usage:        0 bytes
  2149 ;; Hardware stack levels used: 1
  2150 ;; This function calls:
  2151 ;;		Nothing
  2152 ;; This function is called by:
  2153 ;;		_main
  2154 ;; This function uses a non-reentrant model
  2155 ;;
  2156                           
  2157                           
  2158                           ;psect for function _UBMP4_config
  2159  0CF0                     _UBMP4_config:
  2160  0CF0                     l1048:	
  2161                           ;incstack = 0
  2162                           ; Regs used in _UBMP4_config: [wreg+status,2]
  2163                           
  2164                           
  2165                           ;UBMP4.c: 31:     OPTION_REG = 0b01010111;
  2166  0CF0  3057               	movlw	87
  2167  0CF1  0021               	movlb	1	; select bank1
  2168  0CF2  0095               	movwf	21	;volatile
  2169  0CF3                     l1050:
  2170                           
  2171                           ;UBMP4.c: 33:     LATA = 0b00000000;
  2172  0CF3  0022               	movlb	2	; select bank2
  2173  0CF4  018C               	clrf	12	;volatile
  2174  0CF5                     l1052:
  2175                           
  2176                           ;UBMP4.c: 34:     TRISA = 0b00001111;
  2177  0CF5  300F               	movlw	15
  2178  0CF6  0021               	movlb	1	; select bank1
  2179  0CF7  008C               	movwf	12	;volatile
  2180                           
  2181                           ;UBMP4.c: 35:     ANSELA = 0b00000000;
  2182  0CF8  0023               	movlb	3	; select bank3
  2183  0CF9  018C               	clrf	12	;volatile
  2184  0CFA                     l1054:
  2185                           
  2186                           ;UBMP4.c: 36:     WPUA = 0b00001000;
  2187  0CFA  3008               	movlw	8
  2188  0CFB  0024               	movlb	4	; select bank4
  2189  0CFC  008C               	movwf	12	;volatile
  2190  0CFD                     l1056:
  2191                           
  2192                           ;UBMP4.c: 38:     LATB = 0b00000000;
  2193  0CFD  0022               	movlb	2	; select bank2
  2194  0CFE  018D               	clrf	13	;volatile
  2195                           
  2196                           ;UBMP4.c: 39:     TRISB = 0b11110000;
  2197  0CFF  30F0               	movlw	240
  2198  0D00  0021               	movlb	1	; select bank1
  2199  0D01  008D               	movwf	13	;volatile
  2200  0D02                     l1058:
  2201                           
  2202                           ;UBMP4.c: 40:     ANSELB = 0b00000000;
  2203  0D02  0023               	movlb	3	; select bank3
  2204  0D03  018D               	clrf	13	;volatile
  2205  0D04                     l1060:
  2206                           
  2207                           ;UBMP4.c: 41:     WPUB = 0b11110000;
  2208  0D04  30F0               	movlw	240
  2209  0D05  0024               	movlb	4	; select bank4
  2210  0D06  008D               	movwf	13	;volatile
  2211                           
  2212                           ;UBMP4.c: 43:     LATC = 0b00000000;
  2213  0D07  0022               	movlb	2	; select bank2
  2214  0D08  018E               	clrf	14	;volatile
  2215  0D09                     l1062:
  2216                           
  2217                           ;UBMP4.c: 44:     TRISC = 0b00001110;
  2218  0D09  300E               	movlw	14
  2219  0D0A  0021               	movlb	1	; select bank1
  2220  0D0B  008E               	movwf	14	;volatile
  2221  0D0C                     l1064:
  2222                           
  2223                           ;UBMP4.c: 45:     ANSELC = 0b00000000;
  2224  0D0C  0023               	movlb	3	; select bank3
  2225  0D0D  018E               	clrf	14	;volatile
  2226  0D0E                     l55:
  2227  0D0E  0008               	return
  2228  0D0F                     __end_of_UBMP4_config:
  2229                           
  2230                           	psect	text8
  2231  0CB6                     __ptext8:	
  2232 ;; *************** function _OSC_config *****************
  2233 ;; Defined at:
  2234 ;;		line 21 in file "UBMP4.c"
  2235 ;; Parameters:    Size  Location     Type
  2236 ;;		None
  2237 ;; Auto vars:     Size  Location     Type
  2238 ;;		None
  2239 ;; Return value:  Size  Location     Type
  2240 ;;                  1    wreg      void 
  2241 ;; Registers used:
  2242 ;;		wreg
  2243 ;; Tracked objects:
  2244 ;;		On entry : 0/0
  2245 ;;		On exit  : 0/0
  2246 ;;		Unchanged: 0/0
  2247 ;; Data sizes:     COMMON   BANK0   BANK1   BANK2   BANK3   BANK4   BANK5   BANK6   BANK7   BANK8   BANK9  BANK10  BANK1
      +1  BANK12
  2248 ;;      Params:         0       0       0       0       0       0       0       0       0       0       0       0       
      +0       0
  2249 ;;      Locals:         0       0       0       0       0       0       0       0       0       0       0       0       
      +0       0
  2250 ;;      Temps:          0       0       0       0       0       0       0       0       0       0       0       0       
      +0       0
  2251 ;;      Totals:         0       0       0       0       0       0       0       0       0       0       0       0       
      +0       0
  2252 ;;Total ram usage:        0 bytes
  2253 ;; Hardware stack levels used: 1
  2254 ;; This function calls:
  2255 ;;		Nothing
  2256 ;; This function is called by:
  2257 ;;		_main
  2258 ;; This function uses a non-reentrant model
  2259 ;;
  2260                           
  2261                           
  2262                           ;psect for function _OSC_config
  2263  0CB6                     _OSC_config:
  2264  0CB6                     l1046:	
  2265                           ;incstack = 0
  2266                           ; Regs used in _OSC_config: [wreg]
  2267                           
  2268                           
  2269                           ;UBMP4.c: 23:     OSCCON = 0xFC;
  2270  0CB6  30FC               	movlw	252
  2271  0CB7  0021               	movlb	1	; select bank1
  2272  0CB8  0099               	movwf	25	;volatile
  2273                           
  2274                           ;UBMP4.c: 24:     ACTCON = 0x90;
  2275  0CB9  3090               	movlw	144
  2276  0CBA  0027               	movlb	7	; select bank7
  2277  0CBB  009B               	movwf	27	;volatile
  2278  0CBC                     l49:	
  2279                           ;UBMP4.c: 25:     while(!PLLRDY);
  2280                           
  2281  0CBC  0021               	movlb	1	; select bank1
  2282  0CBD  1F1A               	btfss	26,6	;volatile
  2283  0CBE  2CC0               	goto	u561
  2284  0CBF  2CC1               	goto	u560
  2285  0CC0                     u561:
  2286  0CC0  2CBC               	goto	l49
  2287  0CC1                     u560:
  2288  0CC1                     l52:
  2289  0CC1  0008               	return
  2290  0CC2                     __end_of_OSC_config:
  2291  007E                     btemp	set	126	;btemp
  2292  007E                     wtemp0	set	126

Data Sizes:
    Strings     0
    Constant    0
    Data        6
    BSS         138
    Persistent  32
    Stack       0

Auto Spaces:
    Space          Size  Autos    Used
    COMMON           14     14      14
    BANK0            80     24      78
    BANK1            80      0      45
    BANK2            80      0      45
    BANK3            80      0       0
    BANK4            80      0       0
    BANK5            80      0       0
    BANK6            80      0       0
    BANK7            80      0       0
    BANK8            80      0       0
    BANK9            80      0       0
    BANK10           80      0       0
    BANK11           80      0       0
    BANK12           48      0       0

Pointer List with Targets:

    neopixel_fill_a@blue	PTR unsigned char  size(1) Largest target is 45
		 -> blues(BANK2[45]), 

    neopixel_fill_a@red	PTR unsigned char  size(1) Largest target is 45
		 -> reds(BANK0[45]), 

    neopixel_fill_a@green	PTR unsigned char  size(1) Largest target is 45
		 -> greens(BANK1[45]), 

    hsvtorgb@b	PTR unsigned char  size(1) Largest target is 45
		 -> blues(BANK2[45]), 

    hsvtorgb@g	PTR unsigned char  size(1) Largest target is 45
		 -> greens(BANK1[45]), 

    hsvtorgb@r	PTR unsigned char  size(1) Largest target is 45
		 -> reds(BANK0[45]), 

    colorFunctions	PTR FTN()void [1] size(2) Largest target is 1
		 -> rainbowCycle(), 


Critical Paths under _main in COMMON

    _main->_hsvtorgb
    _neopixel_fill_a->_neopixel_colour_send
    _hsvtorgb->___awdiv

Critical Paths under _main in BANK0

    _main->_hsvtorgb

Critical Paths under _main in BANK1

    None.

Critical Paths under _main in BANK2

    None.

Critical Paths under _main in BANK3

    None.

Critical Paths under _main in BANK4

    None.

Critical Paths under _main in BANK5

    None.

Critical Paths under _main in BANK6

    None.

Critical Paths under _main in BANK7

    None.

Critical Paths under _main in BANK8

    None.

Critical Paths under _main in BANK9

    None.

Critical Paths under _main in BANK10

    None.

Critical Paths under _main in BANK11

    None.

Critical Paths under _main in BANK12

    None.

Call Graph Tables:

 ---------------------------------------------------------------------------------
 (Depth) Function   	        Calls       Base Space   Used Autos Params    Refs
 ---------------------------------------------------------------------------------
 (0) _main                                                13    13      0    3879
                                             17 BANK0      7     7      0
                         _OSC_config
                       _UBMP4_config
                           _hsvtorgb
                    _neopixel_fill_a
 ---------------------------------------------------------------------------------
 (1) _neopixel_fill_a                                      6     3      3     475
                                              3 COMMON     6     3      3
               _neopixel_colour_send
 ---------------------------------------------------------------------------------
 (2) _neopixel_colour_send                                 3     3      0      69
                                              0 COMMON     3     3      0
 ---------------------------------------------------------------------------------
 (1) _hsvtorgb                                            22    17      5    3201
                                              9 COMMON     5     0      5
                                              0 BANK0     17    17      0
                            ___awdiv
                             ___bmul
                             ___wmul
 ---------------------------------------------------------------------------------
 (2) ___wmul                                               6     2      4     852
                                              0 COMMON     6     2      4
 ---------------------------------------------------------------------------------
 (2) ___bmul                                               4     3      1     244
                                              0 COMMON     4     3      1
 ---------------------------------------------------------------------------------
 (2) ___awdiv                                              9     5      4     452
                                              0 COMMON     9     5      4
 ---------------------------------------------------------------------------------
 (1) _UBMP4_config                                         0     0      0       0
 ---------------------------------------------------------------------------------
 (1) _OSC_config                                           0     0      0       0
 ---------------------------------------------------------------------------------
 Estimated maximum stack depth 2
 ---------------------------------------------------------------------------------

 Call Graph Graphs:

 _main (ROOT)
   _OSC_config
   _UBMP4_config
   _hsvtorgb
     ___awdiv
     ___bmul
     ___wmul
   _neopixel_fill_a
     _neopixel_colour_send

 Address spaces:
Name               Size   Autos  Total    Cost      Usage
BIGRAM             3F0      0       0       0        0.0%
NULL                 0      0       0       0        0.0%
CODE                 0      0       0       0        0.0%
BITCOMMON            E      0       0       1        0.0%
BITSFR0              0      0       0       1        0.0%
SFR0                 0      0       0       1        0.0%
COMMON               E      E       E       2      100.0%
BITSFR1              0      0       0       2        0.0%
SFR1                 0      0       0       2        0.0%
BITSFR2              0      0       0       3        0.0%
SFR2                 0      0       0       3        0.0%
STACK                0      0       0       3        0.0%
BITBANK0            50      0       0       4        0.0%
BITSFR3              0      0       0       4        0.0%
SFR3                 0      0       0       4        0.0%
BANK0               50     18      4E       5       97.5%
BITSFR4              0      0       0       5        0.0%
SFR4                 0      0       0       5        0.0%
BITBANK1            50      0       0       6        0.0%
BITSFR5              0      0       0       6        0.0%
SFR5                 0      0       0       6        0.0%
BANK1               50      0      2D       7       56.2%
BITSFR6              0      0       0       7        0.0%
SFR6                 0      0       0       7        0.0%
BITBANK2            50      0       0       8        0.0%
BITSFR7              0      0       0       8        0.0%
SFR7                 0      0       0       8        0.0%
BANK2               50      0      2D       9       56.2%
BITSFR8              0      0       0       9        0.0%
SFR8                 0      0       0       9        0.0%
BITBANK3            50      0       0      10        0.0%
BITSFR9              0      0       0      10        0.0%
SFR9                 0      0       0      10        0.0%
BANK3               50      0       0      11        0.0%
BITSFR10             0      0       0      11        0.0%
SFR10                0      0       0      11        0.0%
BITBANK4            50      0       0      12        0.0%
BITSFR11             0      0       0      12        0.0%
SFR11                0      0       0      12        0.0%
BANK4               50      0       0      13        0.0%
BITSFR12             0      0       0      13        0.0%
SFR12                0      0       0      13        0.0%
BITBANK5            50      0       0      14        0.0%
BITSFR13             0      0       0      14        0.0%
SFR13                0      0       0      14        0.0%
BANK5               50      0       0      15        0.0%
BITSFR14             0      0       0      15        0.0%
SFR14                0      0       0      15        0.0%
BITBANK6            50      0       0      16        0.0%
BITSFR15             0      0       0      16        0.0%
SFR15                0      0       0      16        0.0%
BANK6               50      0       0      17        0.0%
BITSFR16             0      0       0      17        0.0%
SFR16                0      0       0      17        0.0%
BITBANK7            50      0       0      18        0.0%
BITSFR17             0      0       0      18        0.0%
SFR17                0      0       0      18        0.0%
BANK7               50      0       0      19        0.0%
BITSFR18             0      0       0      19        0.0%
SFR18                0      0       0      19        0.0%
BITSFR19             0      0       0      20        0.0%
SFR19                0      0       0      20        0.0%
ABS                  0      0      B6      20        0.0%
BITBANK8            50      0       0      21        0.0%
BITSFR20             0      0       0      21        0.0%
SFR20                0      0       0      21        0.0%
BANK8               50      0       0      22        0.0%
BITSFR21             0      0       0      22        0.0%
SFR21                0      0       0      22        0.0%
BITBANK9            50      0       0      23        0.0%
BITSFR22             0      0       0      23        0.0%
SFR22                0      0       0      23        0.0%
BANK9               50      0       0      24        0.0%
BITSFR23             0      0       0      24        0.0%
SFR23                0      0       0      24        0.0%
BITBANK10           50      0       0      25        0.0%
BITSFR24             0      0       0      25        0.0%
SFR24                0      0       0      25        0.0%
BANK10              50      0       0      26        0.0%
BITSFR25             0      0       0      26        0.0%
SFR25                0      0       0      26        0.0%
BITBANK11           50      0       0      27        0.0%
BITSFR26             0      0       0      27        0.0%
SFR26                0      0       0      27        0.0%
BANK11              50      0       0      28        0.0%
BITSFR27             0      0       0      28        0.0%
SFR27                0      0       0      28        0.0%
BITBANK12           30      0       0      29        0.0%
BITSFR28             0      0       0      29        0.0%
SFR28                0      0       0      29        0.0%
BANK12              30      0       0      30        0.0%
BITSFR29             0      0       0      30        0.0%
SFR29                0      0       0      30        0.0%
BITSFR30             0      0       0      31        0.0%
SFR30                0      0       0      31        0.0%
DATA                 0      0      B6      31        0.0%
BITSFR31             0      0       0      32        0.0%
SFR31                0      0       0      32        0.0%


Microchip Technology PIC Macro Assembler V2.32 build 20210201212658 
Symbol Table                                                                                   Wed Dec 08 09:43:24 2021

               ___bmul@product 0072                             l52 0CC1                             l55 0D0E  
                           l49 0CBC                             _GO 04E9                   ___awdiv@sign 0076  
      __end_of_neopixel_fill_a 0D5B            ___wmul@multiplicand 0072                            l114 0DFE  
                          l127 0FD4                            l226 0D19                            l155 0CDC  
                          l147 0D5A                            l252 0CD6                            l228 0D2D  
                          l157 0CE3                            l158 0CEF                            l379 0DB9  
                          l960 0CD8                            l970 0CE8                            l980 0D1E  
                          l972 0CEA                            l990 0CC4                            l982 0D23  
                          l974 0D0F                            l966 0CE2                            l992 0CC8  
                          l984 0D29                            l976 0D11                            l968 0CE6  
                          l994 0CCC                            l978 0D15                            l996 0CCE  
                          l988 0CC3                            l998 0CD5                            u400 0D15  
                          u401 0D14                            u500 0D8C                            u501 0D8B  
                          u430 0D29                            u431 0D28                            u415 0D1A  
                          u520 0D9B                            u440 0CC8                            u521 0D9A  
                          u441 0CC7                            u425 0D1F                            u450 0CD5  
                          u610 0DD8                            u515 0D8D                            u451 0CD4  
                          u611 0DD7                            u540 0DAB                            u460 0D60  
                          u380 0CE2                            u700 0E58                            u620 0DDC  
                          u541 0DAA                            u525 0D97                            u461 0D5F  
                          u605 0F0F                            u381 0CE1                            u701 0E57  
                          u621 0DDB                            u550 0DB0                            u470 0D6B  
                          u390 0CEF                            u710 0E60                            u630 0DE2  
                          u551 0DAF                            u535 0DA1                            u471 0D6A  
                          u391 0CEE                            u711 0E5F                            u631 0DE1  
                          u560 0CC1                            u480 0D7C                            u640 0DEE  
                          u561 0CC0                            u481 0D7B                            u641 0DED  
                          u570 0D5A                            u650 0DF3                            u571 0D59  
                          u651 0DF2                            u580 0E6B                            u581 0E6A  
                          u670 0E34                            u495 0D80                            u680 0E3F  
                          u665 0E15                            u737 0E02                            u690 0E4B  
                          u595 0ED6                            u675 0E32                            u685 0E3D  
                          u695 0E49                            wreg 0009                           l1010 0D67  
                         l1002 0D5B                           l1020 0D7C                           l1012 0D6B  
                         l1004 0D5C                           l1030 0D9B                           l1022 0D7F  
                         l1014 0D70                           l1006 0D60                           l1110 0DC0  
                         l1040 0DB0                           l1032 0D9F                           l1024 0D84  
                         l1016 0D74                           l1008 0D65                           l1120 0DE2  
                         l1112 0DC0                           l1104 0DBA                           l1050 0CF3  
                         l1042 0DB5                           l1034 0DA0                           l1026 0D88  
                         l1018 0D76                           l1130 0DF5                           l1122 0DE6  
                         l1114 0DD1                           l1106 0DC0                           l1060 0D04  
                         l1052 0CF5                           l1036 0DA5                           l1028 0D8C  
                         l1140 0E08                           l1124 0DEA                           l1116 0DD8  
                         l1132 0DFA                           l1108 0DC0                           l1046 0CB6  
                         l1062 0D09                           l1054 0CFA                           l1038 0DAB  
                         l1070 0D50                           l1150 0E52                           l1142 0E2B  
                         l1134 0E06                           l1126 0DEE                           l1118 0DDC  
                         l1064 0D0C                           l1056 0CFD                           l1048 0CF0  
                         l1080 0E7C                           l1072 0D54                           l1152 0E58  
                         l1144 0E37                           l1128 0DF3                           l1058 0D02  
                         l1090 0F8D                           l1082 0F31                           l1074 0E66  
                         l1066 0D2F                           l1154 0E5C                           l1146 0E42  
                         l1092 0FA4                           l1084 0F48                           l1076 0E6B  
                         l1068 0D31                           l1156 0E60                           l1148 0E4E  
                         l1086 0F5F                           l1088 0F76                           l1096 0FBB  
                         l1198 0FC3                           _ADON 04E8                           _LATA 010C  
                         _LATB 010D                           _LATC 010E                           _WPUA 020C  
                         _WPUB 020D                           _main 0DBA                           _reds 0023  
                         _tick 0068                           fsr0h 0005                           fsr1h 0007  
                         indf0 0000                           fsr0l 0004                           indf1 0001  
                         fsr1l 0006                           btemp 007E                           start 0803  
            ___bmul@multiplier 0073                          ?_main 0070                __end_of___awdiv 0DBA  
              ___awdiv@divisor 0070                ___awdiv@counter 0075                          _TRISA 008C  
                        _TRISB 008D                          _TRISC 008E                          _blues 0120  
                        main@i 0067                    ?_OSC_config 0070                          status 0003  
                        wtemp0 007E                __initialization 0FD5                   __end_of_main 0E64  
             ?_neopixel_fill_a 0073                         ??_main 0061                         _ADCON0 009D  
                       _ADCON1 009E                         _ADCON2 009F                         _ACTCON 039B  
                       _ADRESH 009C               ___awdiv@dividend 0072                         _ANSELA 018C  
                       _ANSELB 018D                         _ANSELC 018E                         _OSCCON 0099  
                       _PLLRDY 04D6                         ___bmul 0CC2                         ___wmul 0D0F  
                    ??___awdiv 0074                         _greens 00A0               ___awdiv@quotient 0077  
          __size_of_OSC_config 000C               __end_of_hsvtorgb 0FD5        __end_of__initialization 0FFD  
__size_of_neopixel_colour_send 0019            ___bmul@multiplicand 0070                 __pcstackCOMMON 0070  
                ?_UBMP4_config 0070                   __pidataBANK0 0CB0                     __pbssBANK0 0020  
                   __pbssBANK1 00A0                     __pbssBANK2 0120                 hsvtorgb@region 005B  
               ??_UBMP4_config 0070                     __pmaintext 0DBA                        ?___bmul 0070  
                      ?___wmul 0070                   ??_OSC_config 0070                     _left_shift 0022  
                    ?_hsvtorgb 0079                __size_of___bmul 0015                        ___awdiv 0D5B  
              __size_of___wmul 001F                        __ptext1 0D2E                        __ptext2 0CD7  
                      __ptext3 0E64                        __ptext4 0D0F                        __ptext5 0CC2  
                      __ptext6 0D5B                        __ptext7 0CF0                        __ptext8 0CB6  
           __end_of_OSC_config 0CC2       neopixel_colour_send@bits 0072                        clrloop0 0CAB  
         end_of_initialization 0FFD                     ??_hsvtorgb 0050                     _ticks_left 0020  
                    _PORTAbits 000C                      _PORTBbits 000D                      _TRISCbits 008E  
     __size_of_neopixel_fill_a 002D           __end_of_UBMP4_config 0D0F     neopixel_colour_send@colour 0071  
               __end_of___bmul 0CD7                 __end_of___wmul 0D2E   __end_of_neopixel_colour_send 0CF0  
          start_initialization 0FD5                       ??___bmul 0071                       ??___wmul 0074  
                  __pdataBANK0 0068                      ___latbits 0002                  __pcstackBANK0 0050  
            ??_neopixel_fill_a 0076                  hsvtorgb@fpart 005C                       ?___awdiv 0070  
            __size_of_hsvtorgb 0171          __size_of_UBMP4_config 001F                 ___wmul@product 0074  
                     _LATCbits 010E                   _rainbowCycle 0000                      clear_ram0 0CAA  
         _neopixel_colour_send 0CD7                   _UBMP4_config 0CF0              ___wmul@multiplier 0070  
        ?_neopixel_colour_send 0070               __size_of___awdiv 005F                   _numFunctions 006C  
                 _hsvtorgb$685 0058                   _hsvtorgb$686 0059                  __size_of_main 00AA  
                    hsvtorgb@b 007A                      hsvtorgb@g 0079                      hsvtorgb@h 007B  
                    hsvtorgb@p 005F                      hsvtorgb@q 005D                      hsvtorgb@r 0060  
                    hsvtorgb@s 007C                      hsvtorgb@t 005E                      hsvtorgb@v 007D  
        neopixel_fill_a@ledNum 0078                       _hsvtorgb 0E64                _neopixel_fill_a 0D2E  
       ??_neopixel_colour_send 0070                 _colorFunctions 006A           neopixel_fill_a@green 0074  
                   _OPTION_REG 0095            neopixel_fill_a@blue 0075            neopixel_fill_a@leds 0077  
                   _OSC_config 0CB6             neopixel_fill_a@red 0073  
